(lp0
Na(dp1
S'terms'
p2
(lp3
(dp4
S'top_matches'
p5
(lp6
(dp7
S'desc'
p8
S''
p9
sS'id'
p10
VDOID:8805
p11
sS'label'
p12
Vintermediate coronary syndrome
p13
sa(dp14
g8
g9
sg10
VDOID:4558
p15
sg12
VLudwig's angina
p16
sa(dp17
g8
g9
sg10
VHP:0001681
p18
sg12
VAngina pectoris
p19
sa(dp20
g8
g9
sg10
VDOID:13924
p21
sg12
Vnecrotizing ulcerative gingivitis
p22
sa(dp23
g8
VA viral infectious disease that results_in inflammation, located_in pharynx, has_material_basis_in Human herpesvirus 4 and has_symptom fever, has_symptom fatigue, has_symptom lymphadenopathy, and has_symptom splenomegaly.
p24
sg10
VDOID:8568
p25
sg12
Vinfectious mononucleosis
p26
sa(dp27
g8
VAn eye disease that is characterized by an unstable or a sustained increase in the intraocular pressure which the eye cannot withstand without damage to its structure or impairment of its function.
p28
sg10
VDOID:1686
p29
sg12
Vglaucoma
p30
sasS'query'
p31
S'Unstable angina'
p32
sS'synonym_matches'
p33
(lp34
sa(dp35
g5
(lp36
(dp37
g8
VAn artery disease characterized by chronic elevated blood pressure in the arteries.
p38
sg10
VDOID:10763
p39
sg12
Vhypertension
p40
sa(dp41
g8
g9
sg10
VHP:0000822
p42
sg12
VHypertension
p43
sa(dp44
g8
g9
sg10
VDOID:1073
p45
sg12
Vrenal hypertension
p46
sa(dp47
g8
g9
sg10
VDOID:10824
p48
sg12
Vmalignant hypertension
p49
sa(dp50
g8
VA hypertension with no known cause. It is the most common type of hypertension.
p51
sg10
VDOID:10825
p52
sg12
Vessential hypertension
p53
sa(dp54
g8
g9
sg10
VDOID:10762
p55
sg12
Vportal hypertension
p56
sa(dp57
g8
g9
sg10
VDOID:1591
p58
sg12
Vrenovascular hypertension
p59
sa(dp60
g8
VAn eye disease that is characterized by elevated intraocular pressure in the absence of optic nerve damage or visual field loss.
p61
sg10
VDOID:9282
p62
sg12
Vocular hypertension
p63
sa(dp64
g8
VA hypertension characterized by an increase of blood pressure in the pulmonary artery, pulmonary vein or pulmonary capillaries.
p65
sg10
VDOID:6432
p66
sg12
Vpulmonary hypertension
p67
sa(dp68
g8
g9
sg10
VDOID:9428
p69
sg12
Vintracranial hypertension
p70
sasg31
S'Arterial hypertension'
p71
sg33
(lp72
sa(dp73
g5
(lp74
(dp75
g8
VA sleep disorder that involves recurring bouts of excessive amounts of sleepiness.
p76
sg10
VDOID:8619
p77
sg12
Vrecurrent hypersomnia
p78
sa(dp79
g8
g9
sg10
VDOID:11030
p80
sg12
Vcorneal edema
p81
sa(dp82
g8
g9
sg10
VDOID:3770
p83
sg12
Vpulmonary fibrosis
p84
sa(dp85
g8
g9
sg10
VDOID:13406
p86
sg12
Vpulmonary sarcoidosis
p87
sa(dp88
g8
g9
sg10
VDOID:9675
p89
sg12
Vpulmonary emphysema
p90
sa(dp91
g8
VA lung disease with an unknown etiology affecting the lungs which results in bleeding from tiny alveolar capillaries. Examination of sputum and bronchoalveolar lavage fluid can disclose hemosiderin-laden alveolar macrophages (siderophages), and the lung biopsy shows numerous siderophages in the alveoli. Alveolar hemorrhage is characterized by hemoptysis, dyspnea, alveolar infiltrates on chest radiograph, and various degrees of anaemia. Following a bleeding episode, the alveolar macrophages convert the hemoglobin's iron into hemosiderin within 36-72h.
p92
sg10
VDOID:12118
p93
sg12
Vpulmonary hemosiderosis
p94
sa(dp95
g8
VA tuberculosis that is a contagious disease located_in lungs. The infection has_symptom fever, has_symptom cough, has_symptom difficulty in breathing, has_symptom inflammatory infiltrations, has_symptom formation of tubercles, has_symptom caseation, has_symptom pleural effusion, and has_symptom fibrosis.
p96
sg10
VDOID:2957
p97
sg12
Vpulmonary tuberculosis
p98
sa(dp99
g8
VAn embryoma and malignant neoplasm of lung that derives_from tissues of the lung and derives_from pleura (a thin layer of tissue that covers the lungs and lines the interior wall of the chest cavity). It is most commonly effects children.
p100
sg10
VDOID:4765
p101
sg12
Vpulmonary blastoma
p102
sa(dp103
g8
g9
sg10
VDOID:11396
p104
sg12
Vpulmonary edema
p105
sa(dp106
g8
VA hypertension characterized by an increase of blood pressure in the pulmonary artery, pulmonary vein or pulmonary capillaries.
p107
sg10
VDOID:6432
p108
sg12
Vpulmonary hypertension
p109
sasg31
S'Recurrent pulmonary oedema'
p110
sg33
(lp111
(lp112
(dp113
g8
g9
sg10
VHP:0100598
p114
sg12
VPulmonary edema
p115
saasa(dp116
g5
(lp117
(dp118
g8
VA glucose metabolism disease characterized  by chronic hyperglycaemia with disturbances of carbohydrate, fat and protein metabolism resulting from defects in insulin secretion, insulin action, or both.
p119
sg10
VDOID:9351
p120
sg12
Vdiabetes mellitus
p121
sa(dp122
g8
g9
sg10
VHP:0000819
p123
sg12
VDiabetes mellitus
p124
sa(dp125
g8
VA diabetes mellitus that results from the body's failure to produce insulin and has_material_basis_in autoimmune destruction of insulin-producing beta cells of the pancreas.
p126
sg10
VDOID:9744
p127
sg12
Vtype 1 diabetes mellitus
p128
sa(dp129
g8
g9
sg10
VDOID:11717
p130
sg12
Vneonatal diabetes mellitus
p131
sa(dp132
g8
VA neonatal diabetes mellitus that has_material_basis_in homozygous mutation in the glucokinase gene (GCK), heterozygous mutation in the KCNJ11 and INS genes, or by heterozygous or homozygous mutation in the ABCC8 gene.
p133
sg10
VDOID:0060639
p134
sg12
Vpermanent neonatal diabetes mellitus
p135
sa(dp136
g8
VA diabetes mellitus that involves high blood glucose resulting from cells fail to use insulin properly.
p137
sg10
VDOID:9352
p138
sg12
Vtype 2 diabetes mellitus
p139
sa(dp140
g8
VA neonatal diabetes mellitus characterized by hyperglycemia during the neonatal period that remits during infancy but recurs in later life in most patients.
p141
sg10
VDOID:0060334
p142
sg12
Vtransient neonatal diabetes mellitus
p143
sa(dp144
g8
g9
sg10
VDOID:11714
p145
sg12
Vgestational diabetes
p146
sa(dp147
g8
g9
sg10
VHP:0008255
p148
sg12
VTransient neonatal diabetes mellitus
p149
sa(dp150
g8
g9
sg10
VHP:0005978
p151
sg12
VType II diabetes mellitus
p152
sasg31
S'Diabetes mellitus'
p153
sg33
(lp154
sa(dp155
g5
(lp156
(dp157
g8
g9
sg10
VHP:0010980
p158
sg12
VHyperlipoproteinemia
p159
sa(dp160
g8
g9
sg10
VDOID:1172
p161
sg12
Vhyperlipoproteinemia type IV
p162
sa(dp163
g8
g9
sg10
VDOID:1171
p164
sg12
Vhyperlipoproteinemia type V
p165
sa(dp166
g8
g9
sg10
VDOID:3145
p167
sg12
Vhyperlipoproteinemia type III
p168
sa(dp169
g8
g9
sg10
VDOID:1168
p170
sg12
Vfamilial hyperlipidemia
p171
sa(dp172
g8
VA familial hyperlipidemia characterized by very high levels of low-density lipoprotein (LDL) and early cardiovascular disease.
p173
sg10
VDOID:13810
p174
sg12
Vfamilial hypercholesterolemia
p175
sa(dp176
g8
g9
sg10
VDOID:14118
p177
sg12
Vfamilial lipoprotein lipase deficiency
p178
sa(dp179
g8
g9
sg10
VDOID:13809
p180
sg12
Vfamilial combined hyperlipidemia
p181
sasg31
S'Hyperlipoproteinemia'
p182
sg33
(lp183
(lp184
(dp185
g8
VA lipid metabolism disorder characterized by elevated triglyceride levels as a result of excess hepatic production of VLDL or heterozygous LPL deficiency.
p186
sg10
VDOID:0050527
p187
sg12
Vfamilial hypertriglyceridemia
p188
saasasS'filename'
p189
S's0002_re.txt'
p190
sa(dp191
S'terms'
p192
(lp193
(dp194
S'top_matches'
p195
(lp196
(dp197
S'desc'
p198
VA heart disease involving one or more of the four valves of the heart (the aortic and mitral valves on the left and the pulmonary and tricuspid valves on the right).
p199
sS'id'
p200
VDOID:4079
p201
sS'label'
p202
Vheart valve disease
p203
sa(dp204
g198
VA heart valve disease that is characterized by repeated inflammation with fibrinous repair. The cardinal anatomic changes of the valve include leaflet thickening, commissural fusion, and shortening and thickening of the tendinous cords.It is caused by an autoimmune reaction to Group A beta-hemolytic streptococci (GAS) that results in valvular damage.
p205
sg200
VDOID:0050827
p206
sg202
Vrheumatic heart disease
p207
sa(dp208
g198
VA cardiovascular system disease that involves the heart.
p209
sg200
VDOID:114
p210
sg202
Vheart disease
p211
sa(dp212
g198
g9
sg200
VHP:0001726
p213
sg202
VIncreased prevalence of valvular disease
p214
sa(dp215
g198
g9
sg200
VHP:0006694
p216
sg202
VEarly progressive calcific cardiac valvular disease
p217
sa(dp218
g198
g9
sg200
VDOID:8514
p219
sg202
Vacute pulmonary heart disease
p220
sa(dp221
g198
VA cardiovascular system disease that involves the heart's electrical conduction system.
p222
sg200
VDOID:10273
p223
sg202
Vheart conduction disease
p224
sa(dp225
g198
g9
sg200
VDOID:12326
p226
sg202
Vchronic pulmonary heart disease
p227
sa(dp228
g198
g9
sg200
VDOID:12325
p229
sg202
Vkyphoscoliotic heart disease
p230
sasS'query'
p231
S'Valvular heart disease'
p232
sS'synonym_matches'
p233
(lp234
(lp235
(dp236
g198
VAn artery disease that is characterized by plaque building up along the inner walls of the arteries of the heart resulting in a narrowing of the arteries and a reduced blood supply to the cardiac muscles.
p237
sg200
VDOID:3393
p238
sg202
Vcoronary artery disease
p239
saa(lp240
(dp241
g198
g9
sg200
VHP:0001677
p242
sg202
VCoronary artery disease
p243
saasa(dp244
g195
(lp245
(dp246
g198
g9
sg200
VHP:0001653
p247
sg202
VMitral regurgitation
p248
sa(dp249
g198
g9
sg200
VDOID:11502
p250
sg202
Vmitral valve insufficiency
p251
sa(dp252
g198
g9
sg200
VDOID:61
p253
sg202
Vmitral valve disease
p254
sa(dp255
g198
g9
sg200
VHP:0011469
p256
sg202
VNasal regurgitation
p257
sa(dp258
g198
g9
sg200
VHP:0001659
p259
sg202
VAortic regurgitation
p260
sa(dp261
g198
g9
sg200
VHP:0005180
p262
sg202
VTricuspid regurgitation
p263
sa(dp264
g198
VA mitral valve disease where one or both of the cusps of the mitral valve bulge or collapse backward in the left atrium during systole.
p265
sg200
VDOID:988
p266
sg202
Vmitral valve prolapse
p267
sa(dp268
g198
VA mitral valve disease that is characterized by the narrowing of the orifice of the mitral valve of the heart.
p269
sg200
VDOID:1754
p270
sg202
Vmitral valve stenosis
p271
sa(dp272
g198
g9
sg200
VHP:0011560
p273
sg202
VMitral atresia
p274
sa(dp275
g198
g9
sg200
VCL:1001502
p276
sg202
Vmitral cell
p277
sasg231
S'Mitral regurgitation'
p278
sg233
(lp279
sa(dp280
g195
(lp281
(dp282
g198
VAn artery disease characterized by chronic elevated blood pressure in the arteries.
p283
sg200
VDOID:10763
p284
sg202
Vhypertension
p285
sa(dp286
g198
g9
sg200
VHP:0000822
p287
sg202
VHypertension
p288
sa(dp289
g198
g9
sg200
VDOID:1073
p290
sg202
Vrenal hypertension
p291
sa(dp292
g198
g9
sg200
VDOID:10824
p293
sg202
Vmalignant hypertension
p294
sa(dp295
g198
VA hypertension with no known cause. It is the most common type of hypertension.
p296
sg200
VDOID:10825
p297
sg202
Vessential hypertension
p298
sa(dp299
g198
g9
sg200
VDOID:10762
p300
sg202
Vportal hypertension
p301
sa(dp302
g198
g9
sg200
VDOID:1591
p303
sg202
Vrenovascular hypertension
p304
sa(dp305
g198
VAn eye disease that is characterized by elevated intraocular pressure in the absence of optic nerve damage or visual field loss.
p306
sg200
VDOID:9282
p307
sg202
Vocular hypertension
p308
sa(dp309
g198
VA hypertension characterized by an increase of blood pressure in the pulmonary artery, pulmonary vein or pulmonary capillaries.
p310
sg200
VDOID:6432
p311
sg202
Vpulmonary hypertension
p312
sa(dp313
g198
g9
sg200
VDOID:9428
p314
sg202
Vintracranial hypertension
p315
sasg231
S'Arterial hypertension'
p316
sg233
(lp317
sasS'filename'
p318
S's0003_re.txt'
p319
sa(dp320
S'terms'
p321
(lp322
(dp323
S'top_matches'
p324
(lp325
(dp326
S'desc'
p327
VA coronary artery disease characterized by myocardial cell death (myocardial necrosis) due to prolonged ischaemia.
p328
sS'id'
p329
VDOID:5844
p330
sS'label'
p331
Vmyocardial infarction
p332
sa(dp333
g327
g9
sg329
VHP:0001658
p334
sg331
VMyocardial infarction
p335
sa(dp336
g327
g9
sg329
VDOID:10266
p337
sg331
Vsubendocardial infarction acute myocardial infarction
p338
sa(dp339
g327
g9
sg329
VDOID:10649
p340
sg331
Vacute inferolateral myocardial infarction
p341
sa(dp342
g327
g9
sg329
VDOID:10651
p343
sg331
Vacute anterolateral myocardial infarction
p344
sa(dp345
g327
g9
sg329
VDOID:5849
p346
sg331
Vsubendocardial myocardial infarction
p347
sa(dp348
g327
g9
sg329
VDOID:5848
p349
sg331
Vapical myocardial infarction
p350
sa(dp351
g327
g9
sg329
VDOID:5843
p352
sg331
Vposteroinferior myocardial infarction
p353
sa(dp354
g327
g9
sg329
VDOID:5845
p355
sg331
Vanterolateral myocardial infarction
p356
sa(dp357
g327
g9
sg329
VDOID:5847
p358
sg331
Vposterior myocardial infarction
p359
sasS'query'
p360
S'Myocardial infarction'
p361
sS'synonym_matches'
p362
(lp363
(lp364
(dp365
g327
g9
sg329
VDOID:3454
p366
sg331
Vbrain infarction
p367
saa(lp368
(dp369
g327
g9
sg329
VDOID:2533
p370
sg331
Vsplenic infarction
p371
saa(lp372
(dp373
g327
g9
sg329
VDOID:5850
p374
sg331
Vinferior myocardial infarction
p375
saasa(dp376
g324
(lp377
(dp378
g327
VA glucose metabolism disease characterized  by chronic hyperglycaemia with disturbances of carbohydrate, fat and protein metabolism resulting from defects in insulin secretion, insulin action, or both.
p379
sg329
VDOID:9351
p380
sg331
Vdiabetes mellitus
p381
sa(dp382
g327
g9
sg329
VHP:0000819
p383
sg331
VDiabetes mellitus
p384
sa(dp385
g327
VA diabetes mellitus that results from the body's failure to produce insulin and has_material_basis_in autoimmune destruction of insulin-producing beta cells of the pancreas.
p386
sg329
VDOID:9744
p387
sg331
Vtype 1 diabetes mellitus
p388
sa(dp389
g327
g9
sg329
VDOID:11717
p390
sg331
Vneonatal diabetes mellitus
p391
sa(dp392
g327
VA neonatal diabetes mellitus that has_material_basis_in homozygous mutation in the glucokinase gene (GCK), heterozygous mutation in the KCNJ11 and INS genes, or by heterozygous or homozygous mutation in the ABCC8 gene.
p393
sg329
VDOID:0060639
p394
sg331
Vpermanent neonatal diabetes mellitus
p395
sa(dp396
g327
VA diabetes mellitus that involves high blood glucose resulting from cells fail to use insulin properly.
p397
sg329
VDOID:9352
p398
sg331
Vtype 2 diabetes mellitus
p399
sa(dp400
g327
VA neonatal diabetes mellitus characterized by hyperglycemia during the neonatal period that remits during infancy but recurs in later life in most patients.
p401
sg329
VDOID:0060334
p402
sg331
Vtransient neonatal diabetes mellitus
p403
sa(dp404
g327
g9
sg329
VDOID:11714
p405
sg331
Vgestational diabetes
p406
sa(dp407
g327
g9
sg329
VHP:0008255
p408
sg331
VTransient neonatal diabetes mellitus
p409
sa(dp410
g327
g9
sg329
VHP:0005978
p411
sg331
VType II diabetes mellitus
p412
sasg360
S'Diabetes mellitus'
p413
sg362
(lp414
sasS'filename'
p415
S's0004_re.txt'
p416
sa(dp417
S'terms'
p418
(lp419
(dp420
S'top_matches'
p421
(lp422
(dp423
S'desc'
p424
VA coronary artery disease characterized by myocardial cell death (myocardial necrosis) due to prolonged ischaemia.
p425
sS'id'
p426
VDOID:5844
p427
sS'label'
p428
Vmyocardial infarction
p429
sa(dp430
g424
g9
sg426
VHP:0001658
p431
sg428
VMyocardial infarction
p432
sa(dp433
g424
g9
sg426
VDOID:10266
p434
sg428
Vsubendocardial infarction acute myocardial infarction
p435
sa(dp436
g424
g9
sg426
VDOID:10649
p437
sg428
Vacute inferolateral myocardial infarction
p438
sa(dp439
g424
g9
sg426
VDOID:10651
p440
sg428
Vacute anterolateral myocardial infarction
p441
sa(dp442
g424
g9
sg426
VDOID:5849
p443
sg428
Vsubendocardial myocardial infarction
p444
sa(dp445
g424
g9
sg426
VDOID:5848
p446
sg428
Vapical myocardial infarction
p447
sa(dp448
g424
g9
sg426
VDOID:5843
p449
sg428
Vposteroinferior myocardial infarction
p450
sa(dp451
g424
g9
sg426
VDOID:5845
p452
sg428
Vanterolateral myocardial infarction
p453
sa(dp454
g424
g9
sg426
VDOID:5847
p455
sg428
Vposterior myocardial infarction
p456
sasS'query'
p457
S'Myocardial infarction'
p458
sS'synonym_matches'
p459
(lp460
(lp461
(dp462
g424
g9
sg426
VDOID:3454
p463
sg428
Vbrain infarction
p464
saa(lp465
(dp466
g424
g9
sg426
VDOID:2533
p467
sg428
Vsplenic infarction
p468
saa(lp469
(dp470
g424
g9
sg426
VDOID:5850
p471
sg428
Vinferior myocardial infarction
p472
saasa(dp473
g421
(lp474
(dp475
g424
VAn artery disease that is characterized by plaque building up along the inner walls of the arteries of the heart resulting in a narrowing of the arteries and a reduced blood supply to the cardiac muscles.
p476
sg426
VDOID:3393
p477
sg428
Vcoronary artery disease
p478
sa(dp479
g424
g9
sg426
VHP:0001677
p480
sg428
VCoronary artery disease
p481
sa(dp482
g424
g9
sg426
VHP:0005181
p483
sg428
VPremature coronary artery disease
p484
sa(dp485
g424
g9
sg426
VHP:0012436
p486
sg428
VNonocclusive coronary artery disease
p487
sa(dp488
g424
g9
sg426
VDOID:4248
p489
sg428
Vcoronary stenosis
p490
sa(dp491
g424
g9
sg426
VDOID:11847
p492
sg428
Vcoronary thrombosis
p493
sa(dp494
g424
g9
sg426
VDOID:11843
p495
sg428
Vcoronary artery anomaly
p496
sa(dp497
g424
g9
sg426
VDOID:11840
p498
sg428
Vcoronary artery vasospasm
p499
sa(dp500
g424
g9
sg426
VUBERON:0001621
p501
sg428
Vcoronary artery
p502
sa(dp503
g424
g9
sg426
VDOID:3362
p504
sg428
Vcoronary aneurysm
p505
sasg457
S'Coronary artery disease'
p506
sg459
(lp507
(lp508
(dp509
g424
g9
sg426
VHP:0004929
p510
sg428
VCoronary atherosclerosis
p511
saasa(dp512
g421
(lp513
(dp514
g424
VAn artery disease characterized by chronic elevated blood pressure in the arteries.
p515
sg426
VDOID:10763
p516
sg428
Vhypertension
p517
sa(dp518
g424
g9
sg426
VHP:0000822
p519
sg428
VHypertension
p520
sa(dp521
g424
g9
sg426
VDOID:1073
p522
sg428
Vrenal hypertension
p523
sa(dp524
g424
g9
sg426
VDOID:10824
p525
sg428
Vmalignant hypertension
p526
sa(dp527
g424
VA hypertension with no known cause. It is the most common type of hypertension.
p528
sg426
VDOID:10825
p529
sg428
Vessential hypertension
p530
sa(dp531
g424
g9
sg426
VDOID:10762
p532
sg428
Vportal hypertension
p533
sa(dp534
g424
g9
sg426
VDOID:1591
p535
sg428
Vrenovascular hypertension
p536
sa(dp537
g424
VAn eye disease that is characterized by elevated intraocular pressure in the absence of optic nerve damage or visual field loss.
p538
sg426
VDOID:9282
p539
sg428
Vocular hypertension
p540
sa(dp541
g424
VA hypertension characterized by an increase of blood pressure in the pulmonary artery, pulmonary vein or pulmonary capillaries.
p542
sg426
VDOID:6432
p543
sg428
Vpulmonary hypertension
p544
sa(dp545
g424
g9
sg426
VDOID:9428
p546
sg428
Vintracranial hypertension
p547
sasg457
S'Arterial Hypertension'
p548
sg459
(lp549
sa(dp550
g421
(lp551
(dp552
g424
VAn acquired metabolic disease that has_material_basis_in an abnormally high level of uric acid in the blood.
p553
sg426
VDOID:1920
p554
sg428
Vhyperuricemia
p555
sa(dp556
g424
g9
sg426
VHP:0002149
p557
sg428
VHyperuricemia
p558
sa(dp559
g424
g9
sg426
VDOID:1919
p560
sg428
VLesch-Nyhan syndrome
p561
sa(dp562
g424
VA kidney disease that is characterized by hyperuricemia with renal uric acid under-excretion, gout and chronic kidney disease.
p563
sg426
VDOID:0060062
p564
sg428
Vfamilial juvenile hyperuricemic nephropathy
p565
sasg457
S'Hyperuricemia'
p566
sg459
(lp567
sasS'filename'
p568
S's0005_re.txt'
p569
sa(dp570
S'terms'
p571
(lp572
(dp573
S'top_matches'
p574
(lp575
(dp576
S'desc'
p577
VA coronary artery disease characterized by myocardial cell death (myocardial necrosis) due to prolonged ischaemia.
p578
sS'id'
p579
VDOID:5844
p580
sS'label'
p581
Vmyocardial infarction
p582
sa(dp583
g577
g9
sg579
VHP:0001658
p584
sg581
VMyocardial infarction
p585
sa(dp586
g577
g9
sg579
VDOID:10266
p587
sg581
Vsubendocardial infarction acute myocardial infarction
p588
sa(dp589
g577
g9
sg579
VDOID:10649
p590
sg581
Vacute inferolateral myocardial infarction
p591
sa(dp592
g577
g9
sg579
VDOID:10651
p593
sg581
Vacute anterolateral myocardial infarction
p594
sa(dp595
g577
g9
sg579
VDOID:5849
p596
sg581
Vsubendocardial myocardial infarction
p597
sa(dp598
g577
g9
sg579
VDOID:5848
p599
sg581
Vapical myocardial infarction
p600
sa(dp601
g577
g9
sg579
VDOID:5843
p602
sg581
Vposteroinferior myocardial infarction
p603
sa(dp604
g577
g9
sg579
VDOID:5845
p605
sg581
Vanterolateral myocardial infarction
p606
sa(dp607
g577
g9
sg579
VDOID:5847
p608
sg581
Vposterior myocardial infarction
p609
sasS'query'
p610
S'Myocardial infarction'
p611
sS'synonym_matches'
p612
(lp613
(lp614
(dp615
g577
g9
sg579
VDOID:3454
p616
sg581
Vbrain infarction
p617
saa(lp618
(dp619
g577
g9
sg579
VDOID:2533
p620
sg581
Vsplenic infarction
p621
saa(lp622
(dp623
g577
g9
sg579
VDOID:5850
p624
sg581
Vinferior myocardial infarction
p625
saasa(dp626
g574
(lp627
sg610
S'WPW'
p628
sg612
(lp629
sa(dp630
g574
(lp631
(dp632
g577
g9
sg579
VHP:0004757
p633
sg581
VParoxysmal atrial fibrillation
p634
sa(dp635
g577
VA heart conduction disease that is characterized by uncoordinated electrical activity in the heart's upper chambers (the atria), which causes the heartbeat to become fast and irregular and has symptoms palpitations, weakness, fatigue, lightheadedness, dizziness, confusion, shortness of breath and chest pain.
p636
sg579
VDOID:0060224
p637
sg581
Vatrial fibrillation
p638
sa(dp639
g577
g9
sg579
VHP:0005110
p640
sg581
VAtrial fibrillation
p641
sa(dp642
g577
VAn atrial fibrillation that has_material_basis_in autosomal dominant inheritance of the familial atrial fibrillation (ATFB) genes.
p643
sg579
VDOID:0050650
p644
sg581
Vfamilial atrial fibrillation
p645
sa(dp646
g577
g9
sg579
VHP:0004754
p647
sg581
VPermanent atrial fibrillation
p648
sa(dp649
g577
g9
sg579
VHP:0006671
p650
sg581
VParoxysmal atrial tachycardia
p651
sa(dp652
g577
g9
sg579
VDOID:13941
p653
sg581
Vbenign paroxysmal positional nystagmus
p654
sa(dp655
g577
g9
sg579
VDOID:0060284
p656
sg581
Vparoxysmal nocturnal hemoglobinuria
p657
sa(dp658
g577
VA hypersensitivity reaction type II disease characterized by recurrent episodes of fever and acute inflammation of the membranes lining the abdomen, joints and lungs; that has material basis in mutations in the MEFV gene, which encodes the protein pyrin.
p659
sg579
VDOID:2987
p660
sg581
Vfamilial Mediterranean fever
p661
sa(dp662
g577
VA visceral heterotaxy characterized by complete atrioventricular septal defect with a common atrium and univentricular AV connection, total anomalous pulmonary drainage, and transposition or malposition of the great arteries and may be associated with bilateral trilobed lungs, midline liver, asplenia and situs inversus affecting other organs that has_material_basis_in homozygous mutation in the GDF1 gene on chromosome 19p12.
p663
sg579
VDOID:0060856
p664
sg581
Vright atrial isomerism
p665
sasg610
S'paroxysmal atrial fibrillation'
p666
sg612
(lp667
(lp668
(dp669
g577
g9
sg579
VHP:0004765
p670
sg581
VEpisodic supraventricular tachycardia
p671
saasasS'filename'
p672
S's0008_re.txt'
p673
sa(dp674
S'terms'
p675
(lp676
(dp677
S'top_matches'
p678
(lp679
(dp680
S'desc'
p681
VA coronary artery disease characterized by myocardial cell death (myocardial necrosis) due to prolonged ischaemia.
p682
sS'id'
p683
VDOID:5844
p684
sS'label'
p685
Vmyocardial infarction
p686
sa(dp687
g681
g9
sg683
VHP:0001658
p688
sg685
VMyocardial infarction
p689
sa(dp690
g681
g9
sg683
VDOID:10266
p691
sg685
Vsubendocardial infarction acute myocardial infarction
p692
sa(dp693
g681
g9
sg683
VDOID:10649
p694
sg685
Vacute inferolateral myocardial infarction
p695
sa(dp696
g681
g9
sg683
VDOID:10651
p697
sg685
Vacute anterolateral myocardial infarction
p698
sa(dp699
g681
g9
sg683
VDOID:5849
p700
sg685
Vsubendocardial myocardial infarction
p701
sa(dp702
g681
g9
sg683
VDOID:5848
p703
sg685
Vapical myocardial infarction
p704
sa(dp705
g681
g9
sg683
VDOID:5843
p706
sg685
Vposteroinferior myocardial infarction
p707
sa(dp708
g681
g9
sg683
VDOID:5845
p709
sg685
Vanterolateral myocardial infarction
p710
sa(dp711
g681
g9
sg683
VDOID:5847
p712
sg685
Vposterior myocardial infarction
p713
sasS'query'
p714
S'Myocardial infarction'
p715
sS'synonym_matches'
p716
(lp717
(lp718
(dp719
g681
g9
sg683
VDOID:3454
p720
sg685
Vbrain infarction
p721
saa(lp722
(dp723
g681
g9
sg683
VDOID:2533
p724
sg685
Vsplenic infarction
p725
saa(lp726
(dp727
g681
g9
sg683
VDOID:5850
p728
sg685
Vinferior myocardial infarction
p729
saasa(dp730
g678
(lp731
(dp732
g681
VA glucose metabolism disease characterized  by chronic hyperglycaemia with disturbances of carbohydrate, fat and protein metabolism resulting from defects in insulin secretion, insulin action, or both.
p733
sg683
VDOID:9351
p734
sg685
Vdiabetes mellitus
p735
sa(dp736
g681
g9
sg683
VHP:0000819
p737
sg685
VDiabetes mellitus
p738
sa(dp739
g681
VA diabetes mellitus that results from the body's failure to produce insulin and has_material_basis_in autoimmune destruction of insulin-producing beta cells of the pancreas.
p740
sg683
VDOID:9744
p741
sg685
Vtype 1 diabetes mellitus
p742
sa(dp743
g681
g9
sg683
VDOID:11717
p744
sg685
Vneonatal diabetes mellitus
p745
sa(dp746
g681
VA neonatal diabetes mellitus that has_material_basis_in homozygous mutation in the glucokinase gene (GCK), heterozygous mutation in the KCNJ11 and INS genes, or by heterozygous or homozygous mutation in the ABCC8 gene.
p747
sg683
VDOID:0060639
p748
sg685
Vpermanent neonatal diabetes mellitus
p749
sa(dp750
g681
VA diabetes mellitus that involves high blood glucose resulting from cells fail to use insulin properly.
p751
sg683
VDOID:9352
p752
sg685
Vtype 2 diabetes mellitus
p753
sa(dp754
g681
VA neonatal diabetes mellitus characterized by hyperglycemia during the neonatal period that remits during infancy but recurs in later life in most patients.
p755
sg683
VDOID:0060334
p756
sg685
Vtransient neonatal diabetes mellitus
p757
sa(dp758
g681
g9
sg683
VDOID:11714
p759
sg685
Vgestational diabetes
p760
sa(dp761
g681
g9
sg683
VHP:0008255
p762
sg685
VTransient neonatal diabetes mellitus
p763
sa(dp764
g681
g9
sg683
VHP:0005978
p765
sg685
VType II diabetes mellitus
p766
sasg714
S'Diabetes mellitus'
p767
sg716
(lp768
sasS'filename'
p769
S's0010_re.txt'
p770
sa(dp771
S'terms'
p772
(lp773
(dp774
S'top_matches'
p775
(lp776
(dp777
S'desc'
p778
VA heart disease involving one or more of the four valves of the heart (the aortic and mitral valves on the left and the pulmonary and tricuspid valves on the right).
p779
sS'id'
p780
VDOID:4079
p781
sS'label'
p782
Vheart valve disease
p783
sa(dp784
g778
VA heart valve disease that is characterized by repeated inflammation with fibrinous repair. The cardinal anatomic changes of the valve include leaflet thickening, commissural fusion, and shortening and thickening of the tendinous cords.It is caused by an autoimmune reaction to Group A beta-hemolytic streptococci (GAS) that results in valvular damage.
p785
sg780
VDOID:0050827
p786
sg782
Vrheumatic heart disease
p787
sa(dp788
g778
VA cardiovascular system disease that involves the heart.
p789
sg780
VDOID:114
p790
sg782
Vheart disease
p791
sa(dp792
g778
g9
sg780
VHP:0001726
p793
sg782
VIncreased prevalence of valvular disease
p794
sa(dp795
g778
g9
sg780
VHP:0006694
p796
sg782
VEarly progressive calcific cardiac valvular disease
p797
sa(dp798
g778
g9
sg780
VDOID:8514
p799
sg782
Vacute pulmonary heart disease
p800
sa(dp801
g778
VA cardiovascular system disease that involves the heart's electrical conduction system.
p802
sg780
VDOID:10273
p803
sg782
Vheart conduction disease
p804
sa(dp805
g778
g9
sg780
VDOID:12326
p806
sg782
Vchronic pulmonary heart disease
p807
sa(dp808
g778
g9
sg780
VDOID:12325
p809
sg782
Vkyphoscoliotic heart disease
p810
sasS'query'
p811
S'Valvular heart disease'
p812
sS'synonym_matches'
p813
(lp814
(lp815
(dp816
g778
VAn artery disease that is characterized by plaque building up along the inner walls of the arteries of the heart resulting in a narrowing of the arteries and a reduced blood supply to the cardiac muscles.
p817
sg780
VDOID:3393
p818
sg782
Vcoronary artery disease
p819
saa(lp820
(dp821
g778
g9
sg780
VHP:0001677
p822
sg782
VCoronary artery disease
p823
saasa(dp824
g775
(lp825
sg811
S'Synkope'
p826
sg813
(lp827
sa(dp828
g775
(lp829
(dp830
g778
g9
sg780
VDOID:4558
p831
sg782
VLudwig's angina
p832
sa(dp833
g778
g9
sg780
VHP:0001681
p834
sg782
VAngina pectoris
p835
sa(dp836
g778
g9
sg780
VDOID:10428
p837
sg782
Vstable condition keratoconus
p838
sa(dp839
g778
g9
sg780
VDOID:8805
p840
sg782
Vintermediate coronary syndrome
p841
sa(dp842
g778
g9
sg780
VDOID:13924
p843
sg782
Vnecrotizing ulcerative gingivitis
p844
sa(dp845
g778
g9
sg780
VDOID:2215
p846
sg782
Vfactor VII deficiency
p847
sa(dp848
g778
VA viral infectious disease that results_in inflammation, located_in pharynx, has_material_basis_in Human herpesvirus 4 and has_symptom fever, has_symptom fatigue, has_symptom lymphadenopathy, and has_symptom splenomegaly.
p849
sg780
VDOID:8568
p850
sg782
Vinfectious mononucleosis
p851
sa(dp852
g778
VAn autosomal recessive nonsyndromic deafness that is characterized by prelingual onset with severe to profound, stable hearing loss and has_material_basis_in mutation in the COL11A2 gene on chromosome 6p21.
p853
sg780
VDOID:0110509
p854
sg782
Vautosomal recessive nonsyndromic deafness 53
p855
sa(dp856
g778
VAn autosomal recessive nonsyndromic deafness that is characterized by prelingual onset with moderate to profound, stable hearing loss and has_material_basis_in mutation in the MARVELD2 gene on chromosome 5q13.
p857
sg780
VDOID:0110506
p858
sg782
Vautosomal recessive nonsyndromic deafness 49
p859
sa(dp860
g778
VAn autosomal recessive nonsyndromic deafness that is characterized by prelingual onset with severe to profound, stable hearing loss and has_material_basis_in mutation in the TMC1 gene on chromosome 9q21.
p861
sg780
VDOID:0110520
p862
sg782
Vautosomal recessive nonsyndromic deafness 7
p863
sasg811
S'Stable angina'
p864
sg813
(lp865
(lp866
(dp867
g778
VA diabetes mellitus that involves high blood glucose resulting from cells fail to use insulin properly.
p868
sg780
VDOID:9352
p869
sg782
Vtype 2 diabetes mellitus
p870
saa(lp871
(dp872
g778
VA genetic disease that has_material_basis_in mutations in the MODY genes disrupting insulin production.
p873
sg780
VDOID:0050524
p874
sg782
Vmaturity-onset diabetes of the young
p875
saasa(dp876
g775
(lp877
(dp878
g778
g9
sg780
VDOID:5805
p879
sg782
Vsubvalvular aortic stenosis
p880
sa(dp881
g778
g9
sg780
VDOID:1929
p882
sg782
Vsupravalvular aortic stenosis
p883
sa(dp884
g778
VAn aortic valve disease that has_physical_basis_in incomplete opening of the aortic valve.
p885
sg780
VDOID:1712
p886
sg782
Vaortic valve stenosis
p887
sa(dp888
g778
g9
sg780
VHP:0001691
p889
sg782
VMuscular subvalvular aortic stenosis
p890
sa(dp891
g778
g9
sg780
VHP:0001650
p892
sg782
VAortic valve stenosis
p893
sa(dp894
g778
g9
sg780
VHP:0005174
p895
sg782
VMembranous subvalvular aortic stenosis
p896
sa(dp897
g778
g9
sg780
VHP:0005173
p898
sg782
VCalcific aortic valve stenosis
p899
sa(dp900
g778
g9
sg780
VHP:0004381
p901
sg782
VSupravalvular aortic stenosis
p902
sa(dp903
g778
g9
sg780
VDOID:12639
p904
sg782
Vpyloric stenosis
p905
sa(dp906
g778
g9
sg780
VDOID:3227
p907
sg782
Vtracheal stenosis
p908
sasg811
S'Aortic stenosis (gradient 90mmHg)'
p909
sg813
(lp910
sa(dp911
g775
(lp912
sg811
S'Varicosis'
p913
sg813
(lp914
sasS'filename'
p915
S's0012_re.txt'
p916
sa(dp917
S'terms'
p918
(lp919
(dp920
S'top_matches'
p921
(lp922
(dp923
S'desc'
p924
VA coronary artery disease characterized by myocardial cell death (myocardial necrosis) due to prolonged ischaemia.
p925
sS'id'
p926
VDOID:5844
p927
sS'label'
p928
Vmyocardial infarction
p929
sa(dp930
g924
g9
sg926
VHP:0001658
p931
sg928
VMyocardial infarction
p932
sa(dp933
g924
g9
sg926
VDOID:10266
p934
sg928
Vsubendocardial infarction acute myocardial infarction
p935
sa(dp936
g924
g9
sg926
VDOID:10649
p937
sg928
Vacute inferolateral myocardial infarction
p938
sa(dp939
g924
g9
sg926
VDOID:10651
p940
sg928
Vacute anterolateral myocardial infarction
p941
sa(dp942
g924
g9
sg926
VDOID:5849
p943
sg928
Vsubendocardial myocardial infarction
p944
sa(dp945
g924
g9
sg926
VDOID:5848
p946
sg928
Vapical myocardial infarction
p947
sa(dp948
g924
g9
sg926
VDOID:5843
p949
sg928
Vposteroinferior myocardial infarction
p950
sa(dp951
g924
g9
sg926
VDOID:5845
p952
sg928
Vanterolateral myocardial infarction
p953
sa(dp954
g924
g9
sg926
VDOID:5847
p955
sg928
Vposterior myocardial infarction
p956
sasS'query'
p957
S'Myocardial infarction'
p958
sS'synonym_matches'
p959
(lp960
(lp961
(dp962
g924
g9
sg926
VDOID:3454
p963
sg928
Vbrain infarction
p964
saa(lp965
(dp966
g924
g9
sg926
VDOID:2533
p967
sg928
Vsplenic infarction
p968
saa(lp969
(dp970
g924
g9
sg926
VDOID:5850
p971
sg928
Vinferior myocardial infarction
p972
saasa(dp973
g921
(lp974
(dp975
g924
g9
sg926
VDOID:1936
p976
sg928
Vatherosclerosis
p977
sa(dp978
g924
g9
sg926
VHP:0002621
p979
sg928
VAtherosclerosis
p980
sa(dp981
g924
g9
sg926
VDOID:10230
p982
sg928
Vaortic atherosclerosis
p983
sa(dp984
g924
g9
sg926
VDOID:12720
p985
sg928
Vcerebral atherosclerosis
p986
sa(dp987
g924
g9
sg926
VDOID:2347
p988
sg928
Vgeneralized atherosclerosis
p989
sa(dp990
g924
g9
sg926
VHP:0004943
p991
sg928
VAccelerated atherosclerosis
p992
sa(dp993
g924
g9
sg926
VHP:0004929
p994
sg928
VCoronary atherosclerosis
p995
sa(dp996
g924
g9
sg926
VHP:0012397
p997
sg928
VAortic atherosclerosis
p998
sa(dp999
g924
g9
sg926
VHP:0004416
p1000
sg928
VPrecocious atherosclerosis
p1001
sa(dp1002
g924
g9
sg926
VDOID:9847
p1003
sg928
Vperipheral vertigo
p1004
sasg957
S'Peripheral atherosclerosis'
p1005
sg959
(lp1006
(lp1007
(dp1008
g924
g9
sg926
VDOID:2348
p1009
sg928
Varteriosclerotic cardiovascular disease
p1010
saa(lp1011
(dp1012
g924
VAn artery disease that is characterized by build up of plaque in the arteries that carry blood to your head, organs, and limbs.
p1013
sg926
VDOID:0050830
p1014
sg928
Vperipheral artery disease
p1015
saa(lp1016
(dp1017
g924
g9
sg926
VDOID:13097
p1018
sg928
Vintracranial arteriosclerosis
p1019
saasa(dp1020
g921
(lp1021
(dp1022
g924
g9
sg926
VHP:0001297
p1023
sg928
VStroke
p1024
sa(dp1025
g924
VAn artery disease that is characterized by dysfunction of the blood vessels supplying the brain.
p1026
sg926
VDOID:6713
p1027
sg928
Vcerebrovascular disease
p1028
sa(dp1029
g924
g9
sg926
VHP:0001727
p1030
sg928
VThromboembolic stroke
p1031
sa(dp1032
g924
g9
sg926
VHP:0002140
p1033
sg928
VIschemic stroke
p1034
sa(dp1035
g924
g9
sg926
VDOID:13403
p1036
sg928
Vcerebral sarcoidosis
p1037
sa(dp1038
g924
g9
sg926
VDOID:10742
p1039
sg928
Vcerebral lipidosis
p1040
sa(dp1041
g924
g9
sg926
VDOID:12720
p1042
sg928
Vcerebral atherosclerosis
p1043
sa(dp1044
g924
g9
sg926
VDOID:3526
p1045
sg928
Vcerebral infarction
p1046
sa(dp1047
g924
VA cerebrum cancer that affects the lymph cells and derives_from the brain.
p1048
sg926
VDOID:5815
p1049
sg928
Vcerebral lymphoma
p1050
sa(dp1051
g924
VA malaria that involves neurologic damage resulting from blockage of the blood vessels, caused due to the infection of the red blood cells by Plasmodium species.
p1052
sg926
VDOID:14069
p1053
sg928
Vcerebral malaria
p1054
sasg957
S'Cerebral stroke'
p1055
sg959
(lp1056
sa(dp1057
g921
(lp1058
(dp1059
g924
VAn upper respiratory tract disease which involves inflammation of the mucous membranes of the nose, throat, eyes, and eustachian tubes with watery then purulent discharge. This is an acute contagious disease caused by rhinoviruses, human parainfluenza viruses, human respiratory syncytial virus, influenza viruses, adenoviruses, enteroviruses, or metapneumovirus.
p1060
sg926
VDOID:10459
p1061
sg928
Vcommon cold
p1062
sa(dp1063
g924
VAn autosomal dominant disease characterized by problems with regulating body temperature and other abnormalities affecting many parts of the body. It has material basis in mutations in the CRLF1 gene.
p1064
sg926
VDOID:0060294
p1065
sg928
Vcold-induced sweating syndrome
p1066
sa(dp1067
g924
g9
sg926
VCL:0000587
p1068
sg928
Vcold sensing thermoreceptor cell
p1069
sa(dp1070
g924
g9
sg926
VHP:0003435
p1071
sg928
VCold-induced hand cramps
p1072
sa(dp1073
g924
g9
sg926
VHP:0003449
p1074
sg928
VCold-induced muscle cramps
p1075
sa(dp1076
g924
g9
sg926
VDOID:3083
p1077
sg928
Vchronic obstructive pulmonary disease
p1078
sa(dp1079
g924
VA bronchial disease that is an inflammation of the bronchial tubes. It is caused by bacteria and viruses. The disease has_symptom cough with mucus, has_symptom shortness of breath, has_symptom low fever and has_symptom chest tightness.
p1080
sg926
VDOID:6132
p1081
sg928
Vbronchitis
p1082
sa(dp1083
g924
VA hypersensitivity reaction type IV disease that involves large amounts of cryoglobulins in the blood which become thick or gel-like in cold temperatures.
p1084
sg926
VDOID:2917
p1085
sg928
Vcryoglobulinemia
p1086
sa(dp1087
g924
VA syndrome characterized by progressive weakness and atrophy of muscles in feet, legs and hands. In some patients the syndrome also causes decreased sensitivity to touch, heat or cold, particularly in the lower arms or legs.
p1088
sg926
VDOID:0050526
p1089
sg928
VGamstorp-Wohlfart syndrome
p1090
sa(dp1091
g924
VAn asthma that is triggered by factors not related to allergies such as anxiety, stress, exercise, cold air, dry air, hyperventilation, smoke, viruses, chemical irritants, autonomic imbalance, hormonal deficiencies and psychogenic influences. It is characterized by airway obstruction and inflammation that is at least partially reversible with medication. The symptoms include coughing, wheezing, shortness of breath or rapid breathing, and chest tightness.
p1092
sg926
VDOID:9360
p1093
sg928
Vintrinsic asthma
p1094
sasg957
S'COLD'
p1095
sg959
(lp1096
sasS'filename'
p1097
S's0013_re.txt'
p1098
sa(dp1099
S'terms'
p1100
(lp1101
(dp1102
S'top_matches'
p1103
(lp1104
(dp1105
S'desc'
p1106
VA coronary artery disease characterized by myocardial cell death (myocardial necrosis) due to prolonged ischaemia.
p1107
sS'id'
p1108
VDOID:5844
p1109
sS'label'
p1110
Vmyocardial infarction
p1111
sa(dp1112
g1106
g9
sg1108
VHP:0001658
p1113
sg1110
VMyocardial infarction
p1114
sa(dp1115
g1106
g9
sg1108
VDOID:10266
p1116
sg1110
Vsubendocardial infarction acute myocardial infarction
p1117
sa(dp1118
g1106
g9
sg1108
VDOID:10649
p1119
sg1110
Vacute inferolateral myocardial infarction
p1120
sa(dp1121
g1106
g9
sg1108
VDOID:10651
p1122
sg1110
Vacute anterolateral myocardial infarction
p1123
sa(dp1124
g1106
g9
sg1108
VDOID:5849
p1125
sg1110
Vsubendocardial myocardial infarction
p1126
sa(dp1127
g1106
g9
sg1108
VDOID:5848
p1128
sg1110
Vapical myocardial infarction
p1129
sa(dp1130
g1106
g9
sg1108
VDOID:5843
p1131
sg1110
Vposteroinferior myocardial infarction
p1132
sa(dp1133
g1106
g9
sg1108
VDOID:5845
p1134
sg1110
Vanterolateral myocardial infarction
p1135
sa(dp1136
g1106
g9
sg1108
VDOID:5847
p1137
sg1110
Vposterior myocardial infarction
p1138
sasS'query'
p1139
S'Myocardial infarction'
p1140
sS'synonym_matches'
p1141
(lp1142
(lp1143
(dp1144
g1106
g9
sg1108
VDOID:3454
p1145
sg1110
Vbrain infarction
p1146
saa(lp1147
(dp1148
g1106
g9
sg1108
VDOID:2533
p1149
sg1110
Vsplenic infarction
p1150
saa(lp1151
(dp1152
g1106
g9
sg1108
VDOID:5850
p1153
sg1110
Vinferior myocardial infarction
p1154
saasa(dp1155
g1103
(lp1156
(dp1157
g1106
VA glucose metabolism disease characterized  by chronic hyperglycaemia with disturbances of carbohydrate, fat and protein metabolism resulting from defects in insulin secretion, insulin action, or both.
p1158
sg1108
VDOID:9351
p1159
sg1110
Vdiabetes mellitus
p1160
sa(dp1161
g1106
g9
sg1108
VHP:0000819
p1162
sg1110
VDiabetes mellitus
p1163
sa(dp1164
g1106
VA diabetes mellitus that results from the body's failure to produce insulin and has_material_basis_in autoimmune destruction of insulin-producing beta cells of the pancreas.
p1165
sg1108
VDOID:9744
p1166
sg1110
Vtype 1 diabetes mellitus
p1167
sa(dp1168
g1106
g9
sg1108
VDOID:11717
p1169
sg1110
Vneonatal diabetes mellitus
p1170
sa(dp1171
g1106
VA neonatal diabetes mellitus that has_material_basis_in homozygous mutation in the glucokinase gene (GCK), heterozygous mutation in the KCNJ11 and INS genes, or by heterozygous or homozygous mutation in the ABCC8 gene.
p1172
sg1108
VDOID:0060639
p1173
sg1110
Vpermanent neonatal diabetes mellitus
p1174
sa(dp1175
g1106
VA diabetes mellitus that involves high blood glucose resulting from cells fail to use insulin properly.
p1176
sg1108
VDOID:9352
p1177
sg1110
Vtype 2 diabetes mellitus
p1178
sa(dp1179
g1106
VA neonatal diabetes mellitus characterized by hyperglycemia during the neonatal period that remits during infancy but recurs in later life in most patients.
p1180
sg1108
VDOID:0060334
p1181
sg1110
Vtransient neonatal diabetes mellitus
p1182
sa(dp1183
g1106
g9
sg1108
VDOID:11714
p1184
sg1110
Vgestational diabetes
p1185
sa(dp1186
g1106
g9
sg1108
VHP:0008255
p1187
sg1110
VTransient neonatal diabetes mellitus
p1188
sa(dp1189
g1106
g9
sg1108
VHP:0005978
p1190
sg1110
VType II diabetes mellitus
p1191
sasg1139
S'Diabetes mellitus'
p1192
sg1141
(lp1193
sasS'filename'
p1194
S's0014lre.txt'
p1195
sa(dp1196
S'terms'
p1197
(lp1198
(dp1199
S'top_matches'
p1200
(lp1201
(dp1202
S'desc'
p1203
VA coronary artery disease characterized by myocardial cell death (myocardial necrosis) due to prolonged ischaemia.
p1204
sS'id'
p1205
VDOID:5844
p1206
sS'label'
p1207
Vmyocardial infarction
p1208
sa(dp1209
g1203
g9
sg1205
VHP:0001658
p1210
sg1207
VMyocardial infarction
p1211
sa(dp1212
g1203
g9
sg1205
VDOID:10266
p1213
sg1207
Vsubendocardial infarction acute myocardial infarction
p1214
sa(dp1215
g1203
g9
sg1205
VDOID:10649
p1216
sg1207
Vacute inferolateral myocardial infarction
p1217
sa(dp1218
g1203
g9
sg1205
VDOID:10651
p1219
sg1207
Vacute anterolateral myocardial infarction
p1220
sa(dp1221
g1203
g9
sg1205
VDOID:5849
p1222
sg1207
Vsubendocardial myocardial infarction
p1223
sa(dp1224
g1203
g9
sg1205
VDOID:5848
p1225
sg1207
Vapical myocardial infarction
p1226
sa(dp1227
g1203
g9
sg1205
VDOID:5843
p1228
sg1207
Vposteroinferior myocardial infarction
p1229
sa(dp1230
g1203
g9
sg1205
VDOID:5845
p1231
sg1207
Vanterolateral myocardial infarction
p1232
sa(dp1233
g1203
g9
sg1205
VDOID:5847
p1234
sg1207
Vposterior myocardial infarction
p1235
sasS'query'
p1236
S'Myocardial infarction'
p1237
sS'synonym_matches'
p1238
(lp1239
(lp1240
(dp1241
g1203
g9
sg1205
VDOID:3454
p1242
sg1207
Vbrain infarction
p1243
saa(lp1244
(dp1245
g1203
g9
sg1205
VDOID:2533
p1246
sg1207
Vsplenic infarction
p1247
saa(lp1248
(dp1249
g1203
g9
sg1205
VDOID:5850
p1250
sg1207
Vinferior myocardial infarction
p1251
saasa(dp1252
g1200
(lp1253
(dp1254
g1203
VAn artery disease characterized by chronic elevated blood pressure in the arteries.
p1255
sg1205
VDOID:10763
p1256
sg1207
Vhypertension
p1257
sa(dp1258
g1203
g9
sg1205
VHP:0000822
p1259
sg1207
VHypertension
p1260
sa(dp1261
g1203
g9
sg1205
VDOID:1073
p1262
sg1207
Vrenal hypertension
p1263
sa(dp1264
g1203
g9
sg1205
VDOID:10824
p1265
sg1207
Vmalignant hypertension
p1266
sa(dp1267
g1203
VA hypertension with no known cause. It is the most common type of hypertension.
p1268
sg1205
VDOID:10825
p1269
sg1207
Vessential hypertension
p1270
sa(dp1271
g1203
g9
sg1205
VDOID:10762
p1272
sg1207
Vportal hypertension
p1273
sa(dp1274
g1203
g9
sg1205
VDOID:1591
p1275
sg1207
Vrenovascular hypertension
p1276
sa(dp1277
g1203
VAn eye disease that is characterized by elevated intraocular pressure in the absence of optic nerve damage or visual field loss.
p1278
sg1205
VDOID:9282
p1279
sg1207
Vocular hypertension
p1280
sa(dp1281
g1203
VA hypertension characterized by an increase of blood pressure in the pulmonary artery, pulmonary vein or pulmonary capillaries.
p1282
sg1205
VDOID:6432
p1283
sg1207
Vpulmonary hypertension
p1284
sa(dp1285
g1203
g9
sg1205
VDOID:9428
p1286
sg1207
Vintracranial hypertension
p1287
sasg1236
S'Arterial hypertension'
p1288
sg1238
(lp1289
sa(dp1290
g1200
(lp1291
(dp1292
g1203
g9
sg1205
VDOID:3928
p1293
sg1207
Vadiposis dolorosa
p1294
sa(dp1295
g1203
g9
sg1205
VDOID:914
p1296
sg1207
Vpeliosis hepatis
p1297
sasg1236
S'Adiposis hepatis'
p1298
sg1238
(lp1299
sa(dp1300
g1200
(lp1301
(dp1302
g1203
VA stomach disease that is an inflammation of the lining of the stomach.
p1303
sg1205
VDOID:4029
p1304
sg1207
Vgastritis
p1305
sa(dp1306
g1203
g9
sg1205
VHP:0005263
p1307
sg1207
VGastritis
p1308
sa(dp1309
g1203
g9
sg1205
VDOID:8680
p1310
sg1207
Valcoholic gastritis
p1311
sa(dp1312
g1203
VA viral gastritis that involves inflammation of the stomach lining caused by herpes simplex virus.
p1313
sg1205
VDOID:6102
p1314
sg1207
Vherpetic gastritis
p1315
sa(dp1316
g1203
g9
sg1205
VDOID:8929
p1317
sg1207
Vatrophic gastritis
p1318
sa(dp1319
g1203
VA gastrointestinal system infectious disease that involves inflammation of the stomach lining caused by viruses. The symptoms include abdominal pain, indigestion, ulcer formation, abdominal bloating, nausea and vomiting.
p1320
sg1205
VDOID:2327
p1321
sg1207
Vviral gastritis
p1322
sa(dp1323
g1203
g9
sg1205
VDOID:4030
p1324
sg1207
Veosinophilic gastritis
p1325
sa(dp1326
g1203
VA gastritis that involves inflammation of the stomach lining caused by bacteria. The disease has_symptom abdominal pain, has_symptom indigestion, has_symptom ulcer formation, has_symptom abdominal bloating, has_symptom nausea and has_symptom vomiting.
p1327
sg1205
VDOID:4033
p1328
sg1207
Vbacterial gastritis
p1329
sa(dp1330
g1203
g9
sg1205
VDOID:4035
p1331
sg1207
Vlymphocytic gastritis
p1332
sa(dp1333
g1203
VA gastrointestinal system infectious disease that involves inflammation of the stomach lining caused by fungal infection in immunocompromised patients.
p1334
sg1205
VDOID:4034
p1335
sg1207
Vfungal gastritis
p1336
sasg1236
S'Gastritis'
p1337
sg1238
(lp1338
(lp1339
(dp1340
g1203
g9
sg1205
VDOID:8757
p1341
sg1207
Vgastric mucosal hypertrophy
p1342
saasasS'filename'
p1343
S's0015lre.txt'
p1344
sa(dp1345
S'terms'
p1346
(lp1347
(dp1348
S'top_matches'
p1349
(lp1350
(dp1351
S'desc'
p1352
VA coronary artery disease characterized by myocardial cell death (myocardial necrosis) due to prolonged ischaemia.
p1353
sS'id'
p1354
VDOID:5844
p1355
sS'label'
p1356
Vmyocardial infarction
p1357
sa(dp1358
g1352
g9
sg1354
VHP:0001658
p1359
sg1356
VMyocardial infarction
p1360
sa(dp1361
g1352
g9
sg1354
VDOID:10266
p1362
sg1356
Vsubendocardial infarction acute myocardial infarction
p1363
sa(dp1364
g1352
g9
sg1354
VDOID:10649
p1365
sg1356
Vacute inferolateral myocardial infarction
p1366
sa(dp1367
g1352
g9
sg1354
VDOID:10651
p1368
sg1356
Vacute anterolateral myocardial infarction
p1369
sa(dp1370
g1352
g9
sg1354
VDOID:5849
p1371
sg1356
Vsubendocardial myocardial infarction
p1372
sa(dp1373
g1352
g9
sg1354
VDOID:5848
p1374
sg1356
Vapical myocardial infarction
p1375
sa(dp1376
g1352
g9
sg1354
VDOID:5843
p1377
sg1356
Vposteroinferior myocardial infarction
p1378
sa(dp1379
g1352
g9
sg1354
VDOID:5845
p1380
sg1356
Vanterolateral myocardial infarction
p1381
sa(dp1382
g1352
g9
sg1354
VDOID:5847
p1383
sg1356
Vposterior myocardial infarction
p1384
sasS'query'
p1385
S'Myocardial infarction'
p1386
sS'synonym_matches'
p1387
(lp1388
(lp1389
(dp1390
g1352
g9
sg1354
VDOID:3454
p1391
sg1356
Vbrain infarction
p1392
saa(lp1393
(dp1394
g1352
g9
sg1354
VDOID:2533
p1395
sg1356
Vsplenic infarction
p1396
saa(lp1397
(dp1398
g1352
g9
sg1354
VDOID:5850
p1399
sg1356
Vinferior myocardial infarction
p1400
saasa(dp1401
g1349
(lp1402
(dp1403
g1352
VA glucose metabolism disease characterized  by chronic hyperglycaemia with disturbances of carbohydrate, fat and protein metabolism resulting from defects in insulin secretion, insulin action, or both.
p1404
sg1354
VDOID:9351
p1405
sg1356
Vdiabetes mellitus
p1406
sa(dp1407
g1352
g9
sg1354
VHP:0000819
p1408
sg1356
VDiabetes mellitus
p1409
sa(dp1410
g1352
VA diabetes mellitus that results from the body's failure to produce insulin and has_material_basis_in autoimmune destruction of insulin-producing beta cells of the pancreas.
p1411
sg1354
VDOID:9744
p1412
sg1356
Vtype 1 diabetes mellitus
p1413
sa(dp1414
g1352
g9
sg1354
VDOID:11717
p1415
sg1356
Vneonatal diabetes mellitus
p1416
sa(dp1417
g1352
VA neonatal diabetes mellitus that has_material_basis_in homozygous mutation in the glucokinase gene (GCK), heterozygous mutation in the KCNJ11 and INS genes, or by heterozygous or homozygous mutation in the ABCC8 gene.
p1418
sg1354
VDOID:0060639
p1419
sg1356
Vpermanent neonatal diabetes mellitus
p1420
sa(dp1421
g1352
VA diabetes mellitus that involves high blood glucose resulting from cells fail to use insulin properly.
p1422
sg1354
VDOID:9352
p1423
sg1356
Vtype 2 diabetes mellitus
p1424
sa(dp1425
g1352
VA neonatal diabetes mellitus characterized by hyperglycemia during the neonatal period that remits during infancy but recurs in later life in most patients.
p1426
sg1354
VDOID:0060334
p1427
sg1356
Vtransient neonatal diabetes mellitus
p1428
sa(dp1429
g1352
g9
sg1354
VDOID:11714
p1430
sg1356
Vgestational diabetes
p1431
sa(dp1432
g1352
g9
sg1354
VHP:0008255
p1433
sg1356
VTransient neonatal diabetes mellitus
p1434
sa(dp1435
g1352
g9
sg1354
VHP:0005978
p1436
sg1356
VType II diabetes mellitus
p1437
sasg1385
S'Diabetes mellitus'
p1438
sg1387
(lp1439
sasS'filename'
p1440
S's0016lre.txt'
p1441
sa(dp1442
S'terms'
p1443
(lp1444
(dp1445
S'top_matches'
p1446
(lp1447
(dp1448
S'desc'
p1449
VA syndrome characterized by a unique combination of cardiac arrhythmias and intestinal pseudo-obstruction. It has material basis in the mutated SGOL1 protein. Distinctive clinical features include atrial dysrhythmias, sick sinus syndrome (SSS) and valve anomalies and chronic intestinal pseudo-obstruction (CIPO).
p1450
sS'id'
p1451
VDOID:0060339
p1452
sS'label'
p1453
Vchronic atrial and intestinal dysrhythmia
p1454
sasS'query'
p1455
S'Dysrhythmia'
p1456
sS'synonym_matches'
p1457
(lp1458
sa(dp1459
g1446
(lp1460
(dp1461
g1449
VA heart conduction disease that is characterized by uncoordinated electrical activity in the heart's upper chambers (the atria), which causes the heartbeat to become fast and irregular and has symptoms palpitations, weakness, fatigue, lightheadedness, dizziness, confusion, shortness of breath and chest pain.
p1462
sg1451
VDOID:0060224
p1463
sg1453
Vatrial fibrillation
p1464
sa(dp1465
g1449
g9
sg1451
VHP:0005110
p1466
sg1453
VAtrial fibrillation
p1467
sa(dp1468
g1449
VAn atrial fibrillation that has_material_basis_in autosomal dominant inheritance of the familial atrial fibrillation (ATFB) genes.
p1469
sg1451
VDOID:0050650
p1470
sg1453
Vfamilial atrial fibrillation
p1471
sa(dp1472
g1449
g9
sg1451
VHP:0004757
p1473
sg1453
VParoxysmal atrial fibrillation
p1474
sa(dp1475
g1449
g9
sg1451
VHP:0004754
p1476
sg1453
VPermanent atrial fibrillation
p1477
sa(dp1478
g1449
g9
sg1451
VHP:0001663
p1479
sg1453
VVentricular fibrillation
p1480
sa(dp1481
g1449
g9
sg1451
VHP:0010546
p1482
sg1453
VMuscle fibrillation
p1483
sa(dp1484
g1449
VA visceral heterotaxy characterized by complete atrioventricular septal defect with a common atrium and univentricular AV connection, total anomalous pulmonary drainage, and transposition or malposition of the great arteries and may be associated with bilateral trilobed lungs, midline liver, asplenia and situs inversus affecting other organs that has_material_basis_in homozygous mutation in the GDF1 gene on chromosome 19p12.
p1485
sg1451
VDOID:0060856
p1486
sg1453
Vright atrial isomerism
p1487
sa(dp1488
g1449
VA heart septal defect located_in in the septum that separates the two atria of the heart.
p1489
sg1451
VDOID:1882
p1490
sg1453
Vatrial heart septal defect
p1491
sa(dp1492
g1449
VAn atrial heart septal defect type 1 associated with variation in the region 5p.
p1493
sg1451
VDOID:0110106
p1494
sg1453
Vatrial heart septal defect 1
p1495
sasg1455
S'Atrial fibrillation'
p1496
sg1457
(lp1497
sa(dp1498
g1446
(lp1499
(dp1500
g1449
VAn artery disease that is characterized by plaque building up along the inner walls of the arteries of the heart resulting in a narrowing of the arteries and a reduced blood supply to the cardiac muscles.
p1501
sg1451
VDOID:3393
p1502
sg1453
Vcoronary artery disease
p1503
sa(dp1504
g1449
g9
sg1451
VHP:0001677
p1505
sg1453
VCoronary artery disease
p1506
sa(dp1507
g1449
g9
sg1451
VHP:0005181
p1508
sg1453
VPremature coronary artery disease
p1509
sa(dp1510
g1449
g9
sg1451
VHP:0012436
p1511
sg1453
VNonocclusive coronary artery disease
p1512
sa(dp1513
g1449
g9
sg1451
VDOID:4248
p1514
sg1453
Vcoronary stenosis
p1515
sa(dp1516
g1449
g9
sg1451
VDOID:11847
p1517
sg1453
Vcoronary thrombosis
p1518
sa(dp1519
g1449
g9
sg1451
VDOID:11843
p1520
sg1453
Vcoronary artery anomaly
p1521
sa(dp1522
g1449
g9
sg1451
VDOID:11840
p1523
sg1453
Vcoronary artery vasospasm
p1524
sa(dp1525
g1449
g9
sg1451
VUBERON:0001621
p1526
sg1453
Vcoronary artery
p1527
sa(dp1528
g1449
g9
sg1451
VDOID:3362
p1529
sg1453
Vcoronary aneurysm
p1530
sasg1455
S'Coronary artery disease'
p1531
sg1457
(lp1532
(lp1533
(dp1534
g1449
g9
sg1451
VHP:0004929
p1535
sg1453
VCoronary atherosclerosis
p1536
saasa(dp1537
g1446
(lp1538
(dp1539
g1449
VAn upper respiratory tract disease which involves inflammation of the mucous membranes of the nose, throat, eyes, and eustachian tubes with watery then purulent discharge. This is an acute contagious disease caused by rhinoviruses, human parainfluenza viruses, human respiratory syncytial virus, influenza viruses, adenoviruses, enteroviruses, or metapneumovirus.
p1540
sg1451
VDOID:10459
p1541
sg1453
Vcommon cold
p1542
sa(dp1543
g1449
VAn autosomal dominant disease characterized by problems with regulating body temperature and other abnormalities affecting many parts of the body. It has material basis in mutations in the CRLF1 gene.
p1544
sg1451
VDOID:0060294
p1545
sg1453
Vcold-induced sweating syndrome
p1546
sa(dp1547
g1449
g9
sg1451
VCL:0000587
p1548
sg1453
Vcold sensing thermoreceptor cell
p1549
sa(dp1550
g1449
g9
sg1451
VHP:0003435
p1551
sg1453
VCold-induced hand cramps
p1552
sa(dp1553
g1449
g9
sg1451
VHP:0003449
p1554
sg1453
VCold-induced muscle cramps
p1555
sa(dp1556
g1449
g9
sg1451
VDOID:3083
p1557
sg1453
Vchronic obstructive pulmonary disease
p1558
sa(dp1559
g1449
VA bronchial disease that is an inflammation of the bronchial tubes. It is caused by bacteria and viruses. The disease has_symptom cough with mucus, has_symptom shortness of breath, has_symptom low fever and has_symptom chest tightness.
p1560
sg1451
VDOID:6132
p1561
sg1453
Vbronchitis
p1562
sa(dp1563
g1449
VA hypersensitivity reaction type IV disease that involves large amounts of cryoglobulins in the blood which become thick or gel-like in cold temperatures.
p1564
sg1451
VDOID:2917
p1565
sg1453
Vcryoglobulinemia
p1566
sa(dp1567
g1449
VA syndrome characterized by progressive weakness and atrophy of muscles in feet, legs and hands. In some patients the syndrome also causes decreased sensitivity to touch, heat or cold, particularly in the lower arms or legs.
p1568
sg1451
VDOID:0050526
p1569
sg1453
VGamstorp-Wohlfart syndrome
p1570
sa(dp1571
g1449
VAn asthma that is triggered by factors not related to allergies such as anxiety, stress, exercise, cold air, dry air, hyperventilation, smoke, viruses, chemical irritants, autonomic imbalance, hormonal deficiencies and psychogenic influences. It is characterized by airway obstruction and inflammation that is at least partially reversible with medication. The symptoms include coughing, wheezing, shortness of breath or rapid breathing, and chest tightness.
p1572
sg1451
VDOID:9360
p1573
sg1453
Vintrinsic asthma
p1574
sasg1455
S'COLD'
p1575
sg1457
(lp1576
sa(dp1577
g1446
(lp1578
(dp1579
g1449
g9
sg1451
VHP:0001659
p1580
sg1453
VAortic regurgitation
p1581
sa(dp1582
g1449
g9
sg1451
VDOID:5805
p1583
sg1453
Vsubvalvular aortic stenosis
p1584
sa(dp1585
g1449
g9
sg1451
VDOID:1929
p1586
sg1453
Vsupravalvular aortic stenosis
p1587
sa(dp1588
g1449
VAn aortic valve disease that has_physical_basis_in incomplete opening of the aortic valve.
p1589
sg1451
VDOID:1712
p1590
sg1453
Vaortic valve stenosis
p1591
sa(dp1592
g1449
VAn aortic valve disease that is characterized by leaking of the aortic valve of the heart causes blood to flow in the reverse direction during ventricular diastole, from the aorta into the left ventricle.
p1593
sg1451
VDOID:57
p1594
sg1453
Vaortic valve insufficiency
p1595
sa(dp1596
g1449
VAn aortic aneurysm that is located_in the abdominal aorta.
p1597
sg1451
VDOID:7693
p1598
sg1453
Vabdominal aortic aneurysm
p1599
sa(dp1600
g1449
g9
sg1451
VHP:0001691
p1601
sg1453
VMuscular subvalvular aortic stenosis
p1602
sa(dp1603
g1449
g9
sg1451
VHP:0001650
p1604
sg1453
VAortic valve stenosis
p1605
sa(dp1606
g1449
g9
sg1451
VHP:0005174
p1607
sg1453
VMembranous subvalvular aortic stenosis
p1608
sa(dp1609
g1449
g9
sg1451
VHP:0005173
p1610
sg1453
VCalcific aortic valve stenosis
p1611
sasg1455
S'Aortic stenosis(gradient 85 mmHg)/regurgitation (grade 1-2)'
p1612
sg1457
(lp1613
sasS'filename'
p1614
S's0018cre.txt'
p1615
sa(dp1616
S'terms'
p1617
(lp1618
(dp1619
S'top_matches'
p1620
(lp1621
(dp1622
S'desc'
p1623
VA syndrome characterized by a unique combination of cardiac arrhythmias and intestinal pseudo-obstruction. It has material basis in the mutated SGOL1 protein. Distinctive clinical features include atrial dysrhythmias, sick sinus syndrome (SSS) and valve anomalies and chronic intestinal pseudo-obstruction (CIPO).
p1624
sS'id'
p1625
VDOID:0060339
p1626
sS'label'
p1627
Vchronic atrial and intestinal dysrhythmia
p1628
sasS'query'
p1629
S'Dysrhythmia'
p1630
sS'synonym_matches'
p1631
(lp1632
sa(dp1633
g1620
(lp1634
(dp1635
g1623
VA heart conduction disease that is characterized by uncoordinated electrical activity in the heart's upper chambers (the atria), which causes the heartbeat to become fast and irregular and has symptoms palpitations, weakness, fatigue, lightheadedness, dizziness, confusion, shortness of breath and chest pain.
p1636
sg1625
VDOID:0060224
p1637
sg1627
Vatrial fibrillation
p1638
sa(dp1639
g1623
g9
sg1625
VHP:0005110
p1640
sg1627
VAtrial fibrillation
p1641
sa(dp1642
g1623
VAn atrial fibrillation that has_material_basis_in autosomal dominant inheritance of the familial atrial fibrillation (ATFB) genes.
p1643
sg1625
VDOID:0050650
p1644
sg1627
Vfamilial atrial fibrillation
p1645
sa(dp1646
g1623
g9
sg1625
VHP:0004757
p1647
sg1627
VParoxysmal atrial fibrillation
p1648
sa(dp1649
g1623
g9
sg1625
VHP:0004754
p1650
sg1627
VPermanent atrial fibrillation
p1651
sa(dp1652
g1623
g9
sg1625
VHP:0001663
p1653
sg1627
VVentricular fibrillation
p1654
sa(dp1655
g1623
g9
sg1625
VHP:0010546
p1656
sg1627
VMuscle fibrillation
p1657
sa(dp1658
g1623
VA visceral heterotaxy characterized by complete atrioventricular septal defect with a common atrium and univentricular AV connection, total anomalous pulmonary drainage, and transposition or malposition of the great arteries and may be associated with bilateral trilobed lungs, midline liver, asplenia and situs inversus affecting other organs that has_material_basis_in homozygous mutation in the GDF1 gene on chromosome 19p12.
p1659
sg1625
VDOID:0060856
p1660
sg1627
Vright atrial isomerism
p1661
sa(dp1662
g1623
VA heart septal defect located_in in the septum that separates the two atria of the heart.
p1663
sg1625
VDOID:1882
p1664
sg1627
Vatrial heart septal defect
p1665
sa(dp1666
g1623
VAn atrial heart septal defect type 1 associated with variation in the region 5p.
p1667
sg1625
VDOID:0110106
p1668
sg1627
Vatrial heart septal defect 1
p1669
sasg1629
S'Atrial fibrillation'
p1670
sg1631
(lp1671
sa(dp1672
g1620
(lp1673
(dp1674
g1623
VAn artery disease that is characterized by plaque building up along the inner walls of the arteries of the heart resulting in a narrowing of the arteries and a reduced blood supply to the cardiac muscles.
p1675
sg1625
VDOID:3393
p1676
sg1627
Vcoronary artery disease
p1677
sa(dp1678
g1623
g9
sg1625
VHP:0001677
p1679
sg1627
VCoronary artery disease
p1680
sa(dp1681
g1623
g9
sg1625
VHP:0005181
p1682
sg1627
VPremature coronary artery disease
p1683
sa(dp1684
g1623
g9
sg1625
VHP:0012436
p1685
sg1627
VNonocclusive coronary artery disease
p1686
sa(dp1687
g1623
g9
sg1625
VDOID:4248
p1688
sg1627
Vcoronary stenosis
p1689
sa(dp1690
g1623
g9
sg1625
VDOID:11847
p1691
sg1627
Vcoronary thrombosis
p1692
sa(dp1693
g1623
g9
sg1625
VDOID:11843
p1694
sg1627
Vcoronary artery anomaly
p1695
sa(dp1696
g1623
g9
sg1625
VDOID:11840
p1697
sg1627
Vcoronary artery vasospasm
p1698
sa(dp1699
g1623
g9
sg1625
VUBERON:0001621
p1700
sg1627
Vcoronary artery
p1701
sa(dp1702
g1623
g9
sg1625
VDOID:3362
p1703
sg1627
Vcoronary aneurysm
p1704
sasg1629
S'Coronary artery disease'
p1705
sg1631
(lp1706
(lp1707
(dp1708
g1623
g9
sg1625
VHP:0004929
p1709
sg1627
VCoronary atherosclerosis
p1710
saasa(dp1711
g1620
(lp1712
(dp1713
g1623
VAn upper respiratory tract disease which involves inflammation of the mucous membranes of the nose, throat, eyes, and eustachian tubes with watery then purulent discharge. This is an acute contagious disease caused by rhinoviruses, human parainfluenza viruses, human respiratory syncytial virus, influenza viruses, adenoviruses, enteroviruses, or metapneumovirus.
p1714
sg1625
VDOID:10459
p1715
sg1627
Vcommon cold
p1716
sa(dp1717
g1623
VAn autosomal dominant disease characterized by problems with regulating body temperature and other abnormalities affecting many parts of the body. It has material basis in mutations in the CRLF1 gene.
p1718
sg1625
VDOID:0060294
p1719
sg1627
Vcold-induced sweating syndrome
p1720
sa(dp1721
g1623
g9
sg1625
VCL:0000587
p1722
sg1627
Vcold sensing thermoreceptor cell
p1723
sa(dp1724
g1623
g9
sg1625
VHP:0003435
p1725
sg1627
VCold-induced hand cramps
p1726
sa(dp1727
g1623
g9
sg1625
VHP:0003449
p1728
sg1627
VCold-induced muscle cramps
p1729
sa(dp1730
g1623
g9
sg1625
VDOID:3083
p1731
sg1627
Vchronic obstructive pulmonary disease
p1732
sa(dp1733
g1623
VA bronchial disease that is an inflammation of the bronchial tubes. It is caused by bacteria and viruses. The disease has_symptom cough with mucus, has_symptom shortness of breath, has_symptom low fever and has_symptom chest tightness.
p1734
sg1625
VDOID:6132
p1735
sg1627
Vbronchitis
p1736
sa(dp1737
g1623
VA hypersensitivity reaction type IV disease that involves large amounts of cryoglobulins in the blood which become thick or gel-like in cold temperatures.
p1738
sg1625
VDOID:2917
p1739
sg1627
Vcryoglobulinemia
p1740
sa(dp1741
g1623
VA syndrome characterized by progressive weakness and atrophy of muscles in feet, legs and hands. In some patients the syndrome also causes decreased sensitivity to touch, heat or cold, particularly in the lower arms or legs.
p1742
sg1625
VDOID:0050526
p1743
sg1627
VGamstorp-Wohlfart syndrome
p1744
sa(dp1745
g1623
VAn asthma that is triggered by factors not related to allergies such as anxiety, stress, exercise, cold air, dry air, hyperventilation, smoke, viruses, chemical irritants, autonomic imbalance, hormonal deficiencies and psychogenic influences. It is characterized by airway obstruction and inflammation that is at least partially reversible with medication. The symptoms include coughing, wheezing, shortness of breath or rapid breathing, and chest tightness.
p1746
sg1625
VDOID:9360
p1747
sg1627
Vintrinsic asthma
p1748
sasg1629
S'COLD'
p1749
sg1631
(lp1750
sa(dp1751
g1620
(lp1752
(dp1753
g1623
g9
sg1625
VHP:0001659
p1754
sg1627
VAortic regurgitation
p1755
sa(dp1756
g1623
g9
sg1625
VDOID:5805
p1757
sg1627
Vsubvalvular aortic stenosis
p1758
sa(dp1759
g1623
g9
sg1625
VDOID:1929
p1760
sg1627
Vsupravalvular aortic stenosis
p1761
sa(dp1762
g1623
VAn aortic valve disease that has_physical_basis_in incomplete opening of the aortic valve.
p1763
sg1625
VDOID:1712
p1764
sg1627
Vaortic valve stenosis
p1765
sa(dp1766
g1623
VAn aortic valve disease that is characterized by leaking of the aortic valve of the heart causes blood to flow in the reverse direction during ventricular diastole, from the aorta into the left ventricle.
p1767
sg1625
VDOID:57
p1768
sg1627
Vaortic valve insufficiency
p1769
sa(dp1770
g1623
VAn aortic aneurysm that is located_in the abdominal aorta.
p1771
sg1625
VDOID:7693
p1772
sg1627
Vabdominal aortic aneurysm
p1773
sa(dp1774
g1623
g9
sg1625
VHP:0001691
p1775
sg1627
VMuscular subvalvular aortic stenosis
p1776
sa(dp1777
g1623
g9
sg1625
VHP:0001650
p1778
sg1627
VAortic valve stenosis
p1779
sa(dp1780
g1623
g9
sg1625
VHP:0005174
p1781
sg1627
VMembranous subvalvular aortic stenosis
p1782
sa(dp1783
g1623
g9
sg1625
VHP:0005173
p1784
sg1627
VCalcific aortic valve stenosis
p1785
sasg1629
S'Aortic stenosis(gradient 85 mmHg)/regurgitation (grade 1-2)'
p1786
sg1631
(lp1787
sasS'filename'
p1788
S's0018lre.txt'
p1789
sa(dp1790
S'terms'
p1791
(lp1792
(dp1793
S'top_matches'
p1794
(lp1795
(dp1796
S'desc'
p1797
VA coronary artery disease characterized by myocardial cell death (myocardial necrosis) due to prolonged ischaemia.
p1798
sS'id'
p1799
VDOID:5844
p1800
sS'label'
p1801
Vmyocardial infarction
p1802
sa(dp1803
g1797
g9
sg1799
VHP:0001658
p1804
sg1801
VMyocardial infarction
p1805
sa(dp1806
g1797
g9
sg1799
VDOID:10266
p1807
sg1801
Vsubendocardial infarction acute myocardial infarction
p1808
sa(dp1809
g1797
g9
sg1799
VDOID:10649
p1810
sg1801
Vacute inferolateral myocardial infarction
p1811
sa(dp1812
g1797
g9
sg1799
VDOID:10651
p1813
sg1801
Vacute anterolateral myocardial infarction
p1814
sa(dp1815
g1797
g9
sg1799
VDOID:5849
p1816
sg1801
Vsubendocardial myocardial infarction
p1817
sa(dp1818
g1797
g9
sg1799
VDOID:5848
p1819
sg1801
Vapical myocardial infarction
p1820
sa(dp1821
g1797
g9
sg1799
VDOID:5843
p1822
sg1801
Vposteroinferior myocardial infarction
p1823
sa(dp1824
g1797
g9
sg1799
VDOID:5845
p1825
sg1801
Vanterolateral myocardial infarction
p1826
sa(dp1827
g1797
g9
sg1799
VDOID:5847
p1828
sg1801
Vposterior myocardial infarction
p1829
sasS'query'
p1830
S'Myocardial infarction'
p1831
sS'synonym_matches'
p1832
(lp1833
(lp1834
(dp1835
g1797
g9
sg1799
VDOID:3454
p1836
sg1801
Vbrain infarction
p1837
saa(lp1838
(dp1839
g1797
g9
sg1799
VDOID:2533
p1840
sg1801
Vsplenic infarction
p1841
saa(lp1842
(dp1843
g1797
g9
sg1799
VDOID:5850
p1844
sg1801
Vinferior myocardial infarction
p1845
saasa(dp1846
g1794
(lp1847
(dp1848
g1797
VA pericardium disease that is characterized by an abnormal accumulation of fluid in the pericardial cavity.
p1849
sg1799
VDOID:118
p1850
sg1801
Vpericardial effusion
p1851
sa(dp1852
g1797
g9
sg1799
VHP:0001698
p1853
sg1801
VPericardial effusion
p1854
sa(dp1855
g1797
g9
sg1799
VHP:0011853
p1856
sg1801
VSerous pericardial effusion
p1857
sa(dp1858
g1797
VAn extrapulmonary tuberculosis that is located_in pericardium resulting in acute pericarditis, chronic pericardial effusion, cardiac tamponade or pericardial constriction.
p1859
sg1799
VDOID:4962
p1860
sg1801
Vpericardial tuberculosis
p1861
sa(dp1862
g1797
VA pericardial effusion in which fluid accumulates in the pericardium (the sac in which the heart is enclosed) and the pericardial spaces fills up faster than the pericardial sac can stretch.
p1863
sg1799
VDOID:115
p1864
sg1801
Vcardiac tamponade
p1865
sa(dp1866
g1797
g9
sg1799
VDOID:6201
p1867
sg1801
Vpericardial mesothelioma
p1868
sa(dp1869
g1797
g9
sg1799
VHP:0002202
p1870
sg1801
VPleural effusion
p1871
sa(dp1872
g1797
g9
sg1799
VUBERON:0000175
p1873
sg1801
Vpleural effusion
p1874
sa(dp1875
g1797
g9
sg1799
VDOID:8012
p1876
sg1801
Vbenign pericardial teratoma
p1877
sa(dp1878
g1797
g9
sg1799
VHP:0011920
p1879
sg1801
VTransudative pleural effusion
p1880
sasg1830
S'Pericardial effusion'
p1881
sg1832
(lp1882
(lp1883
(dp1884
g1797
VA pericardial effusion that results from blood in the pericardial sac.
p1885
sg1799
VDOID:11482
p1886
sg1801
Vhemopericardium
p1887
saasa(dp1888
g1794
(lp1889
(dp1890
g1797
VA glucose metabolism disease characterized  by chronic hyperglycaemia with disturbances of carbohydrate, fat and protein metabolism resulting from defects in insulin secretion, insulin action, or both.
p1891
sg1799
VDOID:9351
p1892
sg1801
Vdiabetes mellitus
p1893
sa(dp1894
g1797
g9
sg1799
VHP:0000819
p1895
sg1801
VDiabetes mellitus
p1896
sa(dp1897
g1797
VA diabetes mellitus that results from the body's failure to produce insulin and has_material_basis_in autoimmune destruction of insulin-producing beta cells of the pancreas.
p1898
sg1799
VDOID:9744
p1899
sg1801
Vtype 1 diabetes mellitus
p1900
sa(dp1901
g1797
g9
sg1799
VDOID:11717
p1902
sg1801
Vneonatal diabetes mellitus
p1903
sa(dp1904
g1797
VA neonatal diabetes mellitus that has_material_basis_in homozygous mutation in the glucokinase gene (GCK), heterozygous mutation in the KCNJ11 and INS genes, or by heterozygous or homozygous mutation in the ABCC8 gene.
p1905
sg1799
VDOID:0060639
p1906
sg1801
Vpermanent neonatal diabetes mellitus
p1907
sa(dp1908
g1797
VA diabetes mellitus that involves high blood glucose resulting from cells fail to use insulin properly.
p1909
sg1799
VDOID:9352
p1910
sg1801
Vtype 2 diabetes mellitus
p1911
sa(dp1912
g1797
VA neonatal diabetes mellitus characterized by hyperglycemia during the neonatal period that remits during infancy but recurs in later life in most patients.
p1913
sg1799
VDOID:0060334
p1914
sg1801
Vtransient neonatal diabetes mellitus
p1915
sa(dp1916
g1797
g9
sg1799
VDOID:11714
p1917
sg1801
Vgestational diabetes
p1918
sa(dp1919
g1797
g9
sg1799
VHP:0008255
p1920
sg1801
VTransient neonatal diabetes mellitus
p1921
sa(dp1922
g1797
g9
sg1799
VHP:0005978
p1923
sg1801
VType II diabetes mellitus
p1924
sasg1830
S'Diabetes mellitus'
p1925
sg1832
(lp1926
sa(dp1927
g1794
(lp1928
(dp1929
g1797
g9
sg1799
VHP:0000083
p1930
sg1801
VRenal insufficiency
p1931
sa(dp1932
g1797
g9
sg1799
VDOID:12465
p1933
sg1801
Vsecondary hyperparathyroidism of renal origin
p1934
sa(dp1935
g1797
VA vein disease that is characterized by impaired flow of blood through the veins.
p1936
sg1799
VDOID:10128
p1937
sg1801
Vvenous insufficiency
p1938
sa(dp1939
g1797
VA placenta disease that is characterized by insufficient blood flow to the placenta during pregnancy.
p1940
sg1799
VDOID:3891
p1941
sg1801
Vplacental insufficiency
p1942
sa(dp1943
g1797
g9
sg1799
VDOID:13003
p1944
sg1801
Vvertebrobasilar insufficiency
p1945
sa(dp1946
g1797
VA viral infectious disease that is a hemorrhagic fever, located_in kidney, has_material_basis_in Hantaan virus, has_material_basis_in Dobrava-Belgrade virus, has_material_basis_in Seoul virus, or has_material_basis_in Puumala virus, which are carried and transmitted_by rodents. The infection has_symptom headache, has_symptom fever, has_symptom muscle pains, has_symptom facial flush, has_symptom petechiae, has_symptom hemorrhagic features, has_symptom proteinuria, and has_symptom renal failure.
p1947
sg1799
VDOID:11266
p1948
sg1801
Vhemorrhagic fever with renal syndrome
p1949
sa(dp1950
g1797
g9
sg1799
VDOID:13316
p1951
sg1801
Vexocrine pancreatic insufficiency
p1952
sa(dp1953
g1797
g9
sg1799
VDOID:8633
p1954
sg1801
Vchronic intestinal vascular insufficiency
p1955
sa(dp1956
g1797
VA pulmonary valve disease that occurs when the pulmonary valve is not strong enough to prevent backflow into the right ventricle. If it is secondary to pulmonary hypertension it is referred to as a Graham Steell murmur.
p1957
sg1799
VDOID:14265
p1958
sg1801
Vpulmonary valve insufficiency
p1959
sa(dp1960
g1797
VAn aortic valve disease that is characterized by leaking of the aortic valve of the heart causes blood to flow in the reverse direction during ventricular diastole, from the aorta into the left ventricle.
p1961
sg1799
VDOID:57
p1962
sg1801
Vaortic valve insufficiency
p1963
sasg1830
S'Renal insufficiency'
p1964
sg1832
(lp1965
(lp1966
(dp1967
g1797
g9
sg1799
VHP:0004893
p1968
sg1801
Vprogressive respiratory failure
p1969
saa(lp1970
(dp1971
g1797
VA kidney disease characterized by the failure of the kidneys to adequately filter waste products from the blood.
p1972
sg1799
VDOID:1074
p1973
sg1801
Vkidney failure
p1974
saasa(dp1975
g1794
(lp1976
(dp1977
g1797
g9
sg1799
VDOID:12514
p1978
sg1801
Vretinal perforation
p1979
sa(dp1980
g1797
VA gastrointestinal system disease that involves inflammation of the peritoneum resulting from perforation of the gastrointestinal tract, which produces immediate chemical inflammation followed shortly by infection from intestinal organisms. Peritonitis can also result from appendicitis, diverticulitis, strangulating intestinal obstruction, pancreatitis, pelvic inflammatory disease, mesenteric ischemia, intraperitoneal blood, barium, or peritoneo-systemic shunts, drains, and dialysis catheters in the peritoneal cavity. The symptoms include abdominal pain and tenderness, fever, fluid in the abdomen, nausea, vomiting and low urine output.
p1981
sg1799
VDOID:8283
p1982
sg1801
Vperitonitis
p1983
sasg1830
S'Dialysis'
p1984
sg1832
(lp1985
(lp1986
(dp1987
g1797
g9
sg1799
VDOID:783
p1988
sg1801
Vend stage renal failure
p1989
saa(lp1990
(dp1991
g1797
g9
sg1799
VDOID:14702
p1992
sg1801
Vbranchiootorenal syndrome
p1993
saa(lp1994
(dp1995
g1797
VA syndrome characterized by malformations of the outer, middle and inner ear and branchial and renal malformations. Mutations of the EYA1, SIX1 and SIX5 genes are associated with the syndrome.
p1996
sg1799
VDOID:0060232
p1997
sg1801
Vbranchiootic syndrome
p1998
saasa(dp1999
g1794
(lp2000
(dp2001
g1797
VAn artery disease characterized by chronic elevated blood pressure in the arteries.
p2002
sg1799
VDOID:10763
p2003
sg1801
Vhypertension
p2004
sa(dp2005
g1797
g9
sg1799
VHP:0000822
p2006
sg1801
VHypertension
p2007
sa(dp2008
g1797
g9
sg1799
VDOID:1073
p2009
sg1801
Vrenal hypertension
p2010
sa(dp2011
g1797
g9
sg1799
VDOID:10824
p2012
sg1801
Vmalignant hypertension
p2013
sa(dp2014
g1797
VA hypertension with no known cause. It is the most common type of hypertension.
p2015
sg1799
VDOID:10825
p2016
sg1801
Vessential hypertension
p2017
sa(dp2018
g1797
g9
sg1799
VDOID:10762
p2019
sg1801
Vportal hypertension
p2020
sa(dp2021
g1797
g9
sg1799
VDOID:1591
p2022
sg1801
Vrenovascular hypertension
p2023
sa(dp2024
g1797
VAn eye disease that is characterized by elevated intraocular pressure in the absence of optic nerve damage or visual field loss.
p2025
sg1799
VDOID:9282
p2026
sg1801
Vocular hypertension
p2027
sa(dp2028
g1797
VA hypertension characterized by an increase of blood pressure in the pulmonary artery, pulmonary vein or pulmonary capillaries.
p2029
sg1799
VDOID:6432
p2030
sg1801
Vpulmonary hypertension
p2031
sa(dp2032
g1797
g9
sg1799
VDOID:9428
p2033
sg1801
Vintracranial hypertension
p2034
sasg1830
S'Arterial hypertension'
p2035
sg1832
(lp2036
sa(dp2037
g1794
(lp2038
(dp2039
g1797
g9
sg1799
VHP:0010980
p2040
sg1801
VHyperlipoproteinemia
p2041
sa(dp2042
g1797
g9
sg1799
VDOID:1172
p2043
sg1801
Vhyperlipoproteinemia type IV
p2044
sa(dp2045
g1797
g9
sg1799
VDOID:1171
p2046
sg1801
Vhyperlipoproteinemia type V
p2047
sa(dp2048
g1797
g9
sg1799
VDOID:3145
p2049
sg1801
Vhyperlipoproteinemia type III
p2050
sa(dp2051
g1797
g9
sg1799
VDOID:1168
p2052
sg1801
Vfamilial hyperlipidemia
p2053
sa(dp2054
g1797
VA familial hyperlipidemia characterized by very high levels of low-density lipoprotein (LDL) and early cardiovascular disease.
p2055
sg1799
VDOID:13810
p2056
sg1801
Vfamilial hypercholesterolemia
p2057
sa(dp2058
g1797
g9
sg1799
VDOID:14118
p2059
sg1801
Vfamilial lipoprotein lipase deficiency
p2060
sa(dp2061
g1797
g9
sg1799
VDOID:13809
p2062
sg1801
Vfamilial combined hyperlipidemia
p2063
sasg1830
S'Hyperlipoproteinemia'
p2064
sg1832
(lp2065
(lp2066
(dp2067
g1797
VA lipid metabolism disorder characterized by elevated triglyceride levels as a result of excess hepatic production of VLDL or heterozygous LPL deficiency.
p2068
sg1799
VDOID:0050527
p2069
sg1801
Vfamilial hypertriglyceridemia
p2070
saasa(dp2071
g1794
(lp2072
(dp2073
g1797
g9
sg1799
VDOID:1936
p2074
sg1801
Vatherosclerosis
p2075
sa(dp2076
g1797
g9
sg1799
VHP:0002621
p2077
sg1801
VAtherosclerosis
p2078
sa(dp2079
g1797
g9
sg1799
VDOID:10230
p2080
sg1801
Vaortic atherosclerosis
p2081
sa(dp2082
g1797
g9
sg1799
VDOID:12720
p2083
sg1801
Vcerebral atherosclerosis
p2084
sa(dp2085
g1797
g9
sg1799
VDOID:2347
p2086
sg1801
Vgeneralized atherosclerosis
p2087
sa(dp2088
g1797
g9
sg1799
VHP:0004943
p2089
sg1801
VAccelerated atherosclerosis
p2090
sa(dp2091
g1797
g9
sg1799
VHP:0004929
p2092
sg1801
VCoronary atherosclerosis
p2093
sa(dp2094
g1797
g9
sg1799
VHP:0012397
p2095
sg1801
VAortic atherosclerosis
p2096
sa(dp2097
g1797
g9
sg1799
VHP:0004416
p2098
sg1801
VPrecocious atherosclerosis
p2099
sa(dp2100
g1797
g9
sg1799
VDOID:9847
p2101
sg1801
Vperipheral vertigo
p2102
sasg1830
S'Peripheral atherosclerosis'
p2103
sg1832
(lp2104
(lp2105
(dp2106
g1797
g9
sg1799
VDOID:2348
p2107
sg1801
Varteriosclerotic cardiovascular disease
p2108
saa(lp2109
(dp2110
g1797
VAn artery disease that is characterized by build up of plaque in the arteries that carry blood to your head, organs, and limbs.
p2111
sg1799
VDOID:0050830
p2112
sg1801
Vperipheral artery disease
p2113
saa(lp2114
(dp2115
g1797
g9
sg1799
VDOID:13097
p2116
sg1801
Vintracranial arteriosclerosis
p2117
saasasS'filename'
p2118
S's0019_re.txt'
p2119
sa(dp2120
S'terms'
p2121
(lp2122
(dp2123
S'top_matches'
p2124
(lp2125
(dp2126
S'desc'
p2127
VA coronary artery disease characterized by myocardial cell death (myocardial necrosis) due to prolonged ischaemia.
p2128
sS'id'
p2129
VDOID:5844
p2130
sS'label'
p2131
Vmyocardial infarction
p2132
sa(dp2133
g2127
g9
sg2129
VHP:0001658
p2134
sg2131
VMyocardial infarction
p2135
sa(dp2136
g2127
g9
sg2129
VDOID:10266
p2137
sg2131
Vsubendocardial infarction acute myocardial infarction
p2138
sa(dp2139
g2127
g9
sg2129
VDOID:10649
p2140
sg2131
Vacute inferolateral myocardial infarction
p2141
sa(dp2142
g2127
g9
sg2129
VDOID:10651
p2143
sg2131
Vacute anterolateral myocardial infarction
p2144
sa(dp2145
g2127
g9
sg2129
VDOID:5849
p2146
sg2131
Vsubendocardial myocardial infarction
p2147
sa(dp2148
g2127
g9
sg2129
VDOID:5848
p2149
sg2131
Vapical myocardial infarction
p2150
sa(dp2151
g2127
g9
sg2129
VDOID:5843
p2152
sg2131
Vposteroinferior myocardial infarction
p2153
sa(dp2154
g2127
g9
sg2129
VDOID:5845
p2155
sg2131
Vanterolateral myocardial infarction
p2156
sa(dp2157
g2127
g9
sg2129
VDOID:5847
p2158
sg2131
Vposterior myocardial infarction
p2159
sasS'query'
p2160
S'Myocardial infarction'
p2161
sS'synonym_matches'
p2162
(lp2163
(lp2164
(dp2165
g2127
g9
sg2129
VDOID:3454
p2166
sg2131
Vbrain infarction
p2167
saa(lp2168
(dp2169
g2127
g9
sg2129
VDOID:2533
p2170
sg2131
Vsplenic infarction
p2171
saa(lp2172
(dp2173
g2127
g9
sg2129
VDOID:5850
p2174
sg2131
Vinferior myocardial infarction
p2175
saasa(dp2176
g2124
(lp2177
(dp2178
g2127
VAn artery disease characterized by chronic elevated blood pressure in the arteries.
p2179
sg2129
VDOID:10763
p2180
sg2131
Vhypertension
p2181
sa(dp2182
g2127
g9
sg2129
VHP:0000822
p2183
sg2131
VHypertension
p2184
sa(dp2185
g2127
g9
sg2129
VDOID:1073
p2186
sg2131
Vrenal hypertension
p2187
sa(dp2188
g2127
g9
sg2129
VDOID:10824
p2189
sg2131
Vmalignant hypertension
p2190
sa(dp2191
g2127
VA hypertension with no known cause. It is the most common type of hypertension.
p2192
sg2129
VDOID:10825
p2193
sg2131
Vessential hypertension
p2194
sa(dp2195
g2127
g9
sg2129
VDOID:10762
p2196
sg2131
Vportal hypertension
p2197
sa(dp2198
g2127
g9
sg2129
VDOID:1591
p2199
sg2131
Vrenovascular hypertension
p2200
sa(dp2201
g2127
VAn eye disease that is characterized by elevated intraocular pressure in the absence of optic nerve damage or visual field loss.
p2202
sg2129
VDOID:9282
p2203
sg2131
Vocular hypertension
p2204
sa(dp2205
g2127
VA hypertension characterized by an increase of blood pressure in the pulmonary artery, pulmonary vein or pulmonary capillaries.
p2206
sg2129
VDOID:6432
p2207
sg2131
Vpulmonary hypertension
p2208
sa(dp2209
g2127
g9
sg2129
VDOID:9428
p2210
sg2131
Vintracranial hypertension
p2211
sasg2160
S'Arterial hypertension'
p2212
sg2162
(lp2213
sa(dp2214
g2124
(lp2215
(dp2216
g2127
g9
sg2129
VDOID:9970
p2217
sg2131
Vobesity
p2218
sa(dp2219
g2127
g9
sg2129
VHP:0001513
p2220
sg2131
VObesity
p2221
sa(dp2222
g2127
g9
sg2129
VDOID:11981
p2223
sg2131
Vmorbid obesity
p2224
sa(dp2225
g2127
g9
sg2129
VHP:0001956
p2226
sg2131
VTruncal obesity
p2227
sa(dp2228
g2127
g9
sg2129
VHP:0012743
p2229
sg2131
VAbdominal obesity
p2230
sa(dp2231
g2127
g9
sg2129
VDOID:0060611
p2232
sg2131
Vabdominal obesity-metabolic syndrome
p2233
sa(dp2234
g2127
VAn abdominal obesity-metabolic syndrome that has_material_basis_in heterozygous mutation in the DYRK1B gene on chromosome 19q13.
p2235
sg2129
VDOID:0060612
p2236
sg2131
Vabdominal obesity-metabolic syndrome 3
p2237
sa(dp2238
g2127
g9
sg2129
VHP:0008915
p2239
sg2131
VChildhood-onset truncal obesity
p2240
sa(dp2241
g2127
g9
sg2129
VDOID:14221
p2242
sg2131
Vmetabolic syndrome X
p2243
sa(dp2244
g2127
VA syndromic X-linked intellectual disability characterized by intellectual disability, truncal obesity, gynecomastia, hypogonadism, dysmorphic facial features, and short stature  that has_material_basis_in hemizygous mutation in the LAS1L gene (300964) on chromosome Xq12.
p2245
sg2129
VDOID:0060814
p2246
sg2131
VWilson-Turner syndrome
p2247
sasg2160
S'Obesity'
p2248
sg2162
(lp2249
sasS'filename'
p2250
S's0020are.txt'
p2251
sa(dp2252
S'terms'
p2253
(lp2254
(dp2255
S'top_matches'
p2256
(lp2257
(dp2258
S'desc'
p2259
VA coronary artery disease characterized by myocardial cell death (myocardial necrosis) due to prolonged ischaemia.
p2260
sS'id'
p2261
VDOID:5844
p2262
sS'label'
p2263
Vmyocardial infarction
p2264
sa(dp2265
g2259
g9
sg2261
VHP:0001658
p2266
sg2263
VMyocardial infarction
p2267
sa(dp2268
g2259
g9
sg2261
VDOID:10266
p2269
sg2263
Vsubendocardial infarction acute myocardial infarction
p2270
sa(dp2271
g2259
g9
sg2261
VDOID:10649
p2272
sg2263
Vacute inferolateral myocardial infarction
p2273
sa(dp2274
g2259
g9
sg2261
VDOID:10651
p2275
sg2263
Vacute anterolateral myocardial infarction
p2276
sa(dp2277
g2259
g9
sg2261
VDOID:5849
p2278
sg2263
Vsubendocardial myocardial infarction
p2279
sa(dp2280
g2259
g9
sg2261
VDOID:5848
p2281
sg2263
Vapical myocardial infarction
p2282
sa(dp2283
g2259
g9
sg2261
VDOID:5843
p2284
sg2263
Vposteroinferior myocardial infarction
p2285
sa(dp2286
g2259
g9
sg2261
VDOID:5845
p2287
sg2263
Vanterolateral myocardial infarction
p2288
sa(dp2289
g2259
g9
sg2261
VDOID:5847
p2290
sg2263
Vposterior myocardial infarction
p2291
sasS'query'
p2292
S'Myocardial infarction'
p2293
sS'synonym_matches'
p2294
(lp2295
(lp2296
(dp2297
g2259
g9
sg2261
VDOID:3454
p2298
sg2263
Vbrain infarction
p2299
saa(lp2300
(dp2301
g2259
g9
sg2261
VDOID:2533
p2302
sg2263
Vsplenic infarction
p2303
saa(lp2304
(dp2305
g2259
g9
sg2261
VDOID:5850
p2306
sg2263
Vinferior myocardial infarction
p2307
saasa(dp2308
g2256
(lp2309
(dp2310
g2259
VAn artery disease characterized by chronic elevated blood pressure in the arteries.
p2311
sg2261
VDOID:10763
p2312
sg2263
Vhypertension
p2313
sa(dp2314
g2259
g9
sg2261
VHP:0000822
p2315
sg2263
VHypertension
p2316
sa(dp2317
g2259
g9
sg2261
VDOID:1073
p2318
sg2263
Vrenal hypertension
p2319
sa(dp2320
g2259
g9
sg2261
VDOID:10824
p2321
sg2263
Vmalignant hypertension
p2322
sa(dp2323
g2259
VA hypertension with no known cause. It is the most common type of hypertension.
p2324
sg2261
VDOID:10825
p2325
sg2263
Vessential hypertension
p2326
sa(dp2327
g2259
g9
sg2261
VDOID:10762
p2328
sg2263
Vportal hypertension
p2329
sa(dp2330
g2259
g9
sg2261
VDOID:1591
p2331
sg2263
Vrenovascular hypertension
p2332
sa(dp2333
g2259
VAn eye disease that is characterized by elevated intraocular pressure in the absence of optic nerve damage or visual field loss.
p2334
sg2261
VDOID:9282
p2335
sg2263
Vocular hypertension
p2336
sa(dp2337
g2259
VA hypertension characterized by an increase of blood pressure in the pulmonary artery, pulmonary vein or pulmonary capillaries.
p2338
sg2261
VDOID:6432
p2339
sg2263
Vpulmonary hypertension
p2340
sa(dp2341
g2259
g9
sg2261
VDOID:9428
p2342
sg2263
Vintracranial hypertension
p2343
sasg2292
S'Arterial hypertension'
p2344
sg2294
(lp2345
sa(dp2346
g2256
(lp2347
(dp2348
g2259
g9
sg2261
VDOID:9970
p2349
sg2263
Vobesity
p2350
sa(dp2351
g2259
g9
sg2261
VHP:0001513
p2352
sg2263
VObesity
p2353
sa(dp2354
g2259
g9
sg2261
VDOID:11981
p2355
sg2263
Vmorbid obesity
p2356
sa(dp2357
g2259
g9
sg2261
VHP:0001956
p2358
sg2263
VTruncal obesity
p2359
sa(dp2360
g2259
g9
sg2261
VHP:0012743
p2361
sg2263
VAbdominal obesity
p2362
sa(dp2363
g2259
g9
sg2261
VDOID:0060611
p2364
sg2263
Vabdominal obesity-metabolic syndrome
p2365
sa(dp2366
g2259
VAn abdominal obesity-metabolic syndrome that has_material_basis_in heterozygous mutation in the DYRK1B gene on chromosome 19q13.
p2367
sg2261
VDOID:0060612
p2368
sg2263
Vabdominal obesity-metabolic syndrome 3
p2369
sa(dp2370
g2259
g9
sg2261
VHP:0008915
p2371
sg2263
VChildhood-onset truncal obesity
p2372
sa(dp2373
g2259
g9
sg2261
VDOID:14221
p2374
sg2263
Vmetabolic syndrome X
p2375
sa(dp2376
g2259
VA syndromic X-linked intellectual disability characterized by intellectual disability, truncal obesity, gynecomastia, hypogonadism, dysmorphic facial features, and short stature  that has_material_basis_in hemizygous mutation in the LAS1L gene (300964) on chromosome Xq12.
p2377
sg2261
VDOID:0060814
p2378
sg2263
VWilson-Turner syndrome
p2379
sasg2292
S'Obesity'
p2380
sg2294
(lp2381
sasS'filename'
p2382
S's0020bre.txt'
p2383
sa(dp2384
S'terms'
p2385
(lp2386
(dp2387
S'top_matches'
p2388
(lp2389
(dp2390
S'desc'
p2391
VA coronary artery disease characterized by myocardial cell death (myocardial necrosis) due to prolonged ischaemia.
p2392
sS'id'
p2393
VDOID:5844
p2394
sS'label'
p2395
Vmyocardial infarction
p2396
sa(dp2397
g2391
g9
sg2393
VHP:0001658
p2398
sg2395
VMyocardial infarction
p2399
sa(dp2400
g2391
g9
sg2393
VDOID:10266
p2401
sg2395
Vsubendocardial infarction acute myocardial infarction
p2402
sa(dp2403
g2391
g9
sg2393
VDOID:10649
p2404
sg2395
Vacute inferolateral myocardial infarction
p2405
sa(dp2406
g2391
g9
sg2393
VDOID:10651
p2407
sg2395
Vacute anterolateral myocardial infarction
p2408
sa(dp2409
g2391
g9
sg2393
VDOID:5849
p2410
sg2395
Vsubendocardial myocardial infarction
p2411
sa(dp2412
g2391
g9
sg2393
VDOID:5848
p2413
sg2395
Vapical myocardial infarction
p2414
sa(dp2415
g2391
g9
sg2393
VDOID:5843
p2416
sg2395
Vposteroinferior myocardial infarction
p2417
sa(dp2418
g2391
g9
sg2393
VDOID:5845
p2419
sg2395
Vanterolateral myocardial infarction
p2420
sa(dp2421
g2391
g9
sg2393
VDOID:5847
p2422
sg2395
Vposterior myocardial infarction
p2423
sasS'query'
p2424
S'Myocardial infarction'
p2425
sS'synonym_matches'
p2426
(lp2427
(lp2428
(dp2429
g2391
g9
sg2393
VDOID:3454
p2430
sg2395
Vbrain infarction
p2431
saa(lp2432
(dp2433
g2391
g9
sg2393
VDOID:2533
p2434
sg2395
Vsplenic infarction
p2435
saa(lp2436
(dp2437
g2391
g9
sg2393
VDOID:5850
p2438
sg2395
Vinferior myocardial infarction
p2439
saasa(dp2440
g2388
(lp2441
sg2424
S'Skoliosis'
p2442
sg2426
(lp2443
sasS'filename'
p2444
S's0021are.txt'
p2445
sa(dp2446
S'terms'
p2447
(lp2448
(dp2449
S'top_matches'
p2450
(lp2451
(dp2452
S'desc'
p2453
VA coronary artery disease characterized by myocardial cell death (myocardial necrosis) due to prolonged ischaemia.
p2454
sS'id'
p2455
VDOID:5844
p2456
sS'label'
p2457
Vmyocardial infarction
p2458
sa(dp2459
g2453
g9
sg2455
VHP:0001658
p2460
sg2457
VMyocardial infarction
p2461
sa(dp2462
g2453
g9
sg2455
VDOID:10266
p2463
sg2457
Vsubendocardial infarction acute myocardial infarction
p2464
sa(dp2465
g2453
g9
sg2455
VDOID:10649
p2466
sg2457
Vacute inferolateral myocardial infarction
p2467
sa(dp2468
g2453
g9
sg2455
VDOID:10651
p2469
sg2457
Vacute anterolateral myocardial infarction
p2470
sa(dp2471
g2453
g9
sg2455
VDOID:5849
p2472
sg2457
Vsubendocardial myocardial infarction
p2473
sa(dp2474
g2453
g9
sg2455
VDOID:5848
p2475
sg2457
Vapical myocardial infarction
p2476
sa(dp2477
g2453
g9
sg2455
VDOID:5843
p2478
sg2457
Vposteroinferior myocardial infarction
p2479
sa(dp2480
g2453
g9
sg2455
VDOID:5845
p2481
sg2457
Vanterolateral myocardial infarction
p2482
sa(dp2483
g2453
g9
sg2455
VDOID:5847
p2484
sg2457
Vposterior myocardial infarction
p2485
sasS'query'
p2486
S'Myocardial infarction'
p2487
sS'synonym_matches'
p2488
(lp2489
(lp2490
(dp2491
g2453
g9
sg2455
VDOID:3454
p2492
sg2457
Vbrain infarction
p2493
saa(lp2494
(dp2495
g2453
g9
sg2455
VDOID:2533
p2496
sg2457
Vsplenic infarction
p2497
saa(lp2498
(dp2499
g2453
g9
sg2455
VDOID:5850
p2500
sg2457
Vinferior myocardial infarction
p2501
saasa(dp2502
g2450
(lp2503
sg2486
S'Skoliosis'
p2504
sg2488
(lp2505
sasS'filename'
p2506
S's0021bre.txt'
p2507
sa(dp2508
S'terms'
p2509
(lp2510
(dp2511
S'top_matches'
p2512
(lp2513
(dp2514
S'desc'
p2515
VA coronary artery disease characterized by myocardial cell death (myocardial necrosis) due to prolonged ischaemia.
p2516
sS'id'
p2517
VDOID:5844
p2518
sS'label'
p2519
Vmyocardial infarction
p2520
sa(dp2521
g2515
g9
sg2517
VHP:0001658
p2522
sg2519
VMyocardial infarction
p2523
sa(dp2524
g2515
g9
sg2517
VDOID:10266
p2525
sg2519
Vsubendocardial infarction acute myocardial infarction
p2526
sa(dp2527
g2515
g9
sg2517
VDOID:10649
p2528
sg2519
Vacute inferolateral myocardial infarction
p2529
sa(dp2530
g2515
g9
sg2517
VDOID:10651
p2531
sg2519
Vacute anterolateral myocardial infarction
p2532
sa(dp2533
g2515
g9
sg2517
VDOID:5849
p2534
sg2519
Vsubendocardial myocardial infarction
p2535
sa(dp2536
g2515
g9
sg2517
VDOID:5848
p2537
sg2519
Vapical myocardial infarction
p2538
sa(dp2539
g2515
g9
sg2517
VDOID:5843
p2540
sg2519
Vposteroinferior myocardial infarction
p2541
sa(dp2542
g2515
g9
sg2517
VDOID:5845
p2543
sg2519
Vanterolateral myocardial infarction
p2544
sa(dp2545
g2515
g9
sg2517
VDOID:5847
p2546
sg2519
Vposterior myocardial infarction
p2547
sasS'query'
p2548
S'Myocardial infarction'
p2549
sS'synonym_matches'
p2550
(lp2551
(lp2552
(dp2553
g2515
g9
sg2517
VDOID:3454
p2554
sg2519
Vbrain infarction
p2555
saa(lp2556
(dp2557
g2515
g9
sg2517
VDOID:2533
p2558
sg2519
Vsplenic infarction
p2559
saa(lp2560
(dp2561
g2515
g9
sg2517
VDOID:5850
p2562
sg2519
Vinferior myocardial infarction
p2563
saasa(dp2564
g2512
(lp2565
(dp2566
g2515
g9
sg2517
VDOID:2640
p2567
sg2519
Vstruma ovarii
p2568
sa(dp2569
g2515
g9
sg2517
VDOID:5209
p2570
sg2519
Vbenign struma ovarii
p2571
sa(dp2572
g2515
g9
sg2517
VDOID:5208
p2573
sg2519
Vmalignant struma ovarii
p2574
sa(dp2575
g2515
g9
sg2517
VDOID:2856
p2576
sg2519
Veuthyroid sick syndrome
p2577
sa(dp2578
g2515
g9
sg2517
VHP:0008247
p2579
sg2519
VEuthyroid hyperthyroxinemia
p2580
sa(dp2581
g2515
g9
sg2517
VHP:0009798
p2582
sg2519
VEuthyroid goiter
p2583
sa(dp2584
g2515
g9
sg2517
VHP:0000866
p2585
sg2519
VEuthyroid multinodular goiter
p2586
sa(dp2587
g2515
VAn autosomal recessive disease characterized by bilateral prelingual sensorineural hearing loss and euthyroid goiter and that has_material_basis_in homozygous or compound heterozygous mutation in the SLC26A4 gene on chromosome 7q.
p2588
sg2517
VDOID:0060744
p2589
sg2519
VPendred Syndrome
p2590
sasg2548
S'Struma (euthyroid)'
p2591
sg2550
(lp2592
sasS'filename'
p2593
S's0022lre.txt'
p2594
sa(dp2595
S'terms'
p2596
(lp2597
(dp2598
S'top_matches'
p2599
(lp2600
(dp2601
S'desc'
p2602
VA heart disease that is characterized by any structural or functional cardiac disorder that impairs the ability of the heart to fill with or pump a sufficient amount of blood throughout the body.
p2603
sS'id'
p2604
VDOID:6000
p2605
sS'label'
p2606
Vcongestive heart failure
p2607
sa(dp2608
g2602
g9
sg2604
VDOID:9775
p2609
sg2606
Vdiastolic heart failure
p2610
sa(dp2611
g2602
g9
sg2604
VDOID:9651
p2612
sg2606
Vsystolic heart failure
p2613
sa(dp2614
g2602
g9
sg2604
VDOID:14172
p2615
sg2606
Vrheumatic congestive heart failure
p2616
sa(dp2617
g2602
g9
sg2604
VHP:0001635
p2618
sg2606
VCongestive heart failure
p2619
sa(dp2620
g2602
g9
sg2604
VHP:0005130
p2621
sg2606
VRestrictive heart failure
p2622
sa(dp2623
g2602
g9
sg2604
VHP:0001722
p2624
sg2606
VHigh-output congestive heart failure
p2625
sa(dp2626
g2602
g9
sg2604
VHP:0009805
p2627
sg2606
VLow-output congestive heart failure
p2628
sa(dp2629
g2602
VA syndromic X-linked intellectual disability characterized by intellectual disability, delayed psychomotor development, seizures, large joint contractures, cardiac abnormalities, and abnormal positioning of the thumbs that has_material_basis_in mutation in the CLIC2 gene on chromosome Xq28.
p2630
sg2604
VDOID:0060828
p2631
sg2606
VX-linked intellectual disability-cardiomegaly-congestive heart failure syndrome
p2632
sa(dp2633
g2602
VAn atrial heart septal defect type 2 that has material basis in heterozygous mutation in the GATA4 gene on chromosome 8p23.
p2634
sg2604
VDOID:0110107
p2635
sg2606
Vatrial heart septal defect 2
p2636
sasS'query'
p2637
S'Heart failure (NYHA 2)'
p2638
sS'synonym_matches'
p2639
(lp2640
sa(dp2641
g2599
(lp2642
(dp2643
g2602
VAn artery disease characterized by chronic elevated blood pressure in the arteries.
p2644
sg2604
VDOID:10763
p2645
sg2606
Vhypertension
p2646
sa(dp2647
g2602
g9
sg2604
VHP:0000822
p2648
sg2606
VHypertension
p2649
sa(dp2650
g2602
g9
sg2604
VDOID:1073
p2651
sg2606
Vrenal hypertension
p2652
sa(dp2653
g2602
g9
sg2604
VDOID:10824
p2654
sg2606
Vmalignant hypertension
p2655
sa(dp2656
g2602
VA hypertension with no known cause. It is the most common type of hypertension.
p2657
sg2604
VDOID:10825
p2658
sg2606
Vessential hypertension
p2659
sa(dp2660
g2602
g9
sg2604
VDOID:10762
p2661
sg2606
Vportal hypertension
p2662
sa(dp2663
g2602
g9
sg2604
VDOID:1591
p2664
sg2606
Vrenovascular hypertension
p2665
sa(dp2666
g2602
VAn eye disease that is characterized by elevated intraocular pressure in the absence of optic nerve damage or visual field loss.
p2667
sg2604
VDOID:9282
p2668
sg2606
Vocular hypertension
p2669
sa(dp2670
g2602
VA hypertension characterized by an increase of blood pressure in the pulmonary artery, pulmonary vein or pulmonary capillaries.
p2671
sg2604
VDOID:6432
p2672
sg2606
Vpulmonary hypertension
p2673
sa(dp2674
g2602
g9
sg2604
VDOID:9428
p2675
sg2606
Vintracranial hypertension
p2676
sasg2637
S'Arteriel hypertension'
p2677
sg2639
(lp2678
sa(dp2679
g2599
(lp2680
(dp2681
g2602
VA glucose metabolism disease characterized  by chronic hyperglycaemia with disturbances of carbohydrate, fat and protein metabolism resulting from defects in insulin secretion, insulin action, or both.
p2682
sg2604
VDOID:9351
p2683
sg2606
Vdiabetes mellitus
p2684
sa(dp2685
g2602
g9
sg2604
VHP:0000819
p2686
sg2606
VDiabetes mellitus
p2687
sa(dp2688
g2602
VA diabetes mellitus that results from the body's failure to produce insulin and has_material_basis_in autoimmune destruction of insulin-producing beta cells of the pancreas.
p2689
sg2604
VDOID:9744
p2690
sg2606
Vtype 1 diabetes mellitus
p2691
sa(dp2692
g2602
g9
sg2604
VDOID:11717
p2693
sg2606
Vneonatal diabetes mellitus
p2694
sa(dp2695
g2602
VA neonatal diabetes mellitus that has_material_basis_in homozygous mutation in the glucokinase gene (GCK), heterozygous mutation in the KCNJ11 and INS genes, or by heterozygous or homozygous mutation in the ABCC8 gene.
p2696
sg2604
VDOID:0060639
p2697
sg2606
Vpermanent neonatal diabetes mellitus
p2698
sa(dp2699
g2602
VA diabetes mellitus that involves high blood glucose resulting from cells fail to use insulin properly.
p2700
sg2604
VDOID:9352
p2701
sg2606
Vtype 2 diabetes mellitus
p2702
sa(dp2703
g2602
VA neonatal diabetes mellitus characterized by hyperglycemia during the neonatal period that remits during infancy but recurs in later life in most patients.
p2704
sg2604
VDOID:0060334
p2705
sg2606
Vtransient neonatal diabetes mellitus
p2706
sa(dp2707
g2602
g9
sg2604
VDOID:11714
p2708
sg2606
Vgestational diabetes
p2709
sa(dp2710
g2602
g9
sg2604
VHP:0008255
p2711
sg2606
VTransient neonatal diabetes mellitus
p2712
sa(dp2713
g2602
g9
sg2604
VHP:0005978
p2714
sg2606
VType II diabetes mellitus
p2715
sasg2637
S'Diabetes mellitus'
p2716
sg2639
(lp2717
sa(dp2718
g2599
(lp2719
(dp2720
g2602
g9
sg2604
VHP:0000112
p2721
sg2606
VNephropathy
p2722
sa(dp2723
g2602
VA urinary system disease that is located_in the kidney.
p2724
sg2604
VDOID:557
p2725
sg2606
Vkidney disease
p2726
sa(dp2727
g2602
VAn interstitial nephritis endemic to the regions along the Danube river, in the modern countries of Croatia, Bosnia and Herzegovina, Serbia, Romania and Bulgaria.
p2728
sg2604
VDOID:3052
p2729
sg2606
VBalkan nephropathy
p2730
sa(dp2731
g2602
g9
sg2604
VDOID:13328
p2732
sg2606
Vdiabetic cataract
p2733
sa(dp2734
g2602
g9
sg2604
VDOID:12785
p2735
sg2606
Vdiabetic polyneuropathy
p2736
sa(dp2737
g2602
g9
sg2604
VDOID:9743
p2738
sg2606
Vdiabetic neuropathy
p2739
sa(dp2740
g2602
g9
sg2604
VDOID:8947
p2741
sg2606
Vdiabetic retinopathy
p2742
sa(dp2743
g2602
g9
sg2604
VDOID:11713
p2744
sg2606
Vdiabetic angiopathy
p2745
sa(dp2746
g2602
g9
sg2604
VDOID:1837
p2747
sg2606
Vdiabetic ketoacidosis
p2748
sa(dp2749
g2602
VA brain disease that is characterized by functional impairment of cognition, cerebral signal conduction, neurotransmission and synaptic plasticity, and underlying structural pathology associated with diabetes.
p2750
sg2604
VDOID:0050850
p2751
sg2606
Vdiabetic encephalopathy
p2752
sasg2637
S'diabetic nephropathy'
p2753
sg2639
(lp2754
(lp2755
(dp2756
g2602
g9
sg2604
VHP:0001953
p2757
sg2606
VDiabetic ketoacidosis
p2758
saa(lp2759
(dp2760
g2602
g9
sg2604
VDOID:11503
p2761
sg2606
Vdiabetic autonomic neuropathy
p2762
saa(lp2763
(dp2764
g2602
g9
sg2604
VDOID:10976
p2765
sg2606
Vmembranous glomerulonephritis
p2766
saasa(dp2767
g2599
(lp2768
sg2637
S'Basalioma'
p2769
sg2639
(lp2770
sasS'filename'
p2771
S's0023_re.txt'
p2772
sa(dp2773
S'terms'
p2774
(lp2775
(dp2776
S'top_matches'
p2777
(lp2778
(dp2779
S'desc'
p2780
VA coronary artery disease characterized by myocardial cell death (myocardial necrosis) due to prolonged ischaemia.
p2781
sS'id'
p2782
VDOID:5844
p2783
sS'label'
p2784
Vmyocardial infarction
p2785
sa(dp2786
g2780
g9
sg2782
VHP:0001658
p2787
sg2784
VMyocardial infarction
p2788
sa(dp2789
g2780
g9
sg2782
VDOID:10266
p2790
sg2784
Vsubendocardial infarction acute myocardial infarction
p2791
sa(dp2792
g2780
g9
sg2782
VDOID:10649
p2793
sg2784
Vacute inferolateral myocardial infarction
p2794
sa(dp2795
g2780
g9
sg2782
VDOID:10651
p2796
sg2784
Vacute anterolateral myocardial infarction
p2797
sa(dp2798
g2780
g9
sg2782
VDOID:5849
p2799
sg2784
Vsubendocardial myocardial infarction
p2800
sa(dp2801
g2780
g9
sg2782
VDOID:5848
p2802
sg2784
Vapical myocardial infarction
p2803
sa(dp2804
g2780
g9
sg2782
VDOID:5843
p2805
sg2784
Vposteroinferior myocardial infarction
p2806
sa(dp2807
g2780
g9
sg2782
VDOID:5845
p2808
sg2784
Vanterolateral myocardial infarction
p2809
sa(dp2810
g2780
g9
sg2782
VDOID:5847
p2811
sg2784
Vposterior myocardial infarction
p2812
sasS'query'
p2813
S'Myocardial infarction'
p2814
sS'synonym_matches'
p2815
(lp2816
(lp2817
(dp2818
g2780
g9
sg2782
VDOID:3454
p2819
sg2784
Vbrain infarction
p2820
saa(lp2821
(dp2822
g2780
g9
sg2782
VDOID:2533
p2823
sg2784
Vsplenic infarction
p2824
saa(lp2825
(dp2826
g2780
g9
sg2782
VDOID:5850
p2827
sg2784
Vinferior myocardial infarction
p2828
saasa(dp2829
g2777
(lp2830
sg2813
S'Skoliosis'
p2831
sg2815
(lp2832
sasS'filename'
p2833
S's0025lre.txt'
p2834
sa(dp2835
S'terms'
p2836
(lp2837
(dp2838
S'top_matches'
p2839
(lp2840
(dp2841
S'desc'
p2842
VA coronary artery disease characterized by myocardial cell death (myocardial necrosis) due to prolonged ischaemia.
p2843
sS'id'
p2844
VDOID:5844
p2845
sS'label'
p2846
Vmyocardial infarction
p2847
sa(dp2848
g2842
g9
sg2844
VHP:0001658
p2849
sg2846
VMyocardial infarction
p2850
sa(dp2851
g2842
g9
sg2844
VDOID:10266
p2852
sg2846
Vsubendocardial infarction acute myocardial infarction
p2853
sa(dp2854
g2842
g9
sg2844
VDOID:10649
p2855
sg2846
Vacute inferolateral myocardial infarction
p2856
sa(dp2857
g2842
g9
sg2844
VDOID:10651
p2858
sg2846
Vacute anterolateral myocardial infarction
p2859
sa(dp2860
g2842
g9
sg2844
VDOID:5849
p2861
sg2846
Vsubendocardial myocardial infarction
p2862
sa(dp2863
g2842
g9
sg2844
VDOID:5848
p2864
sg2846
Vapical myocardial infarction
p2865
sa(dp2866
g2842
g9
sg2844
VDOID:5843
p2867
sg2846
Vposteroinferior myocardial infarction
p2868
sa(dp2869
g2842
g9
sg2844
VDOID:5845
p2870
sg2846
Vanterolateral myocardial infarction
p2871
sa(dp2872
g2842
g9
sg2844
VDOID:5847
p2873
sg2846
Vposterior myocardial infarction
p2874
sasS'query'
p2875
S'Myocardial infarction'
p2876
sS'synonym_matches'
p2877
(lp2878
(lp2879
(dp2880
g2842
g9
sg2844
VDOID:3454
p2881
sg2846
Vbrain infarction
p2882
saa(lp2883
(dp2884
g2842
g9
sg2844
VDOID:2533
p2885
sg2846
Vsplenic infarction
p2886
saa(lp2887
(dp2888
g2842
g9
sg2844
VDOID:5850
p2889
sg2846
Vinferior myocardial infarction
p2890
saasa(dp2891
g2839
(lp2892
(dp2893
g2842
g9
sg2844
VHP:0010980
p2894
sg2846
VHyperlipoproteinemia
p2895
sa(dp2896
g2842
g9
sg2844
VDOID:1172
p2897
sg2846
Vhyperlipoproteinemia type IV
p2898
sa(dp2899
g2842
g9
sg2844
VDOID:1171
p2900
sg2846
Vhyperlipoproteinemia type V
p2901
sa(dp2902
g2842
g9
sg2844
VDOID:3145
p2903
sg2846
Vhyperlipoproteinemia type III
p2904
sa(dp2905
g2842
g9
sg2844
VDOID:1168
p2906
sg2846
Vfamilial hyperlipidemia
p2907
sa(dp2908
g2842
VA familial hyperlipidemia characterized by very high levels of low-density lipoprotein (LDL) and early cardiovascular disease.
p2909
sg2844
VDOID:13810
p2910
sg2846
Vfamilial hypercholesterolemia
p2911
sa(dp2912
g2842
g9
sg2844
VDOID:14118
p2913
sg2846
Vfamilial lipoprotein lipase deficiency
p2914
sa(dp2915
g2842
g9
sg2844
VDOID:13809
p2916
sg2846
Vfamilial combined hyperlipidemia
p2917
sasg2875
S'Hyperlipoproteinemia'
p2918
sg2877
(lp2919
(lp2920
(dp2921
g2842
VA lipid metabolism disorder characterized by elevated triglyceride levels as a result of excess hepatic production of VLDL or heterozygous LPL deficiency.
p2922
sg2844
VDOID:0050527
p2923
sg2846
Vfamilial hypertriglyceridemia
p2924
saasasS'filename'
p2925
S's0026lre.txt'
p2926
sa(dp2927
S'terms'
p2928
(lp2929
(dp2930
S'top_matches'
p2931
(lp2932
(dp2933
S'desc'
p2934
VA coronary artery disease characterized by myocardial cell death (myocardial necrosis) due to prolonged ischaemia.
p2935
sS'id'
p2936
VDOID:5844
p2937
sS'label'
p2938
Vmyocardial infarction
p2939
sa(dp2940
g2934
g9
sg2936
VHP:0001658
p2941
sg2938
VMyocardial infarction
p2942
sa(dp2943
g2934
g9
sg2936
VDOID:10266
p2944
sg2938
Vsubendocardial infarction acute myocardial infarction
p2945
sa(dp2946
g2934
g9
sg2936
VDOID:10649
p2947
sg2938
Vacute inferolateral myocardial infarction
p2948
sa(dp2949
g2934
g9
sg2936
VDOID:10651
p2950
sg2938
Vacute anterolateral myocardial infarction
p2951
sa(dp2952
g2934
g9
sg2936
VDOID:5849
p2953
sg2938
Vsubendocardial myocardial infarction
p2954
sa(dp2955
g2934
g9
sg2936
VDOID:5848
p2956
sg2938
Vapical myocardial infarction
p2957
sa(dp2958
g2934
g9
sg2936
VDOID:5843
p2959
sg2938
Vposteroinferior myocardial infarction
p2960
sa(dp2961
g2934
g9
sg2936
VDOID:5845
p2962
sg2938
Vanterolateral myocardial infarction
p2963
sa(dp2964
g2934
g9
sg2936
VDOID:5847
p2965
sg2938
Vposterior myocardial infarction
p2966
sasS'query'
p2967
S'Myocardial infarction'
p2968
sS'synonym_matches'
p2969
(lp2970
(lp2971
(dp2972
g2934
g9
sg2936
VDOID:3454
p2973
sg2938
Vbrain infarction
p2974
saa(lp2975
(dp2976
g2934
g9
sg2936
VDOID:2533
p2977
sg2938
Vsplenic infarction
p2978
saa(lp2979
(dp2980
g2934
g9
sg2936
VDOID:5850
p2981
sg2938
Vinferior myocardial infarction
p2982
saasa(dp2983
g2931
(lp2984
(dp2985
g2934
g9
sg2936
VDOID:2640
p2986
sg2938
Vstruma ovarii
p2987
sa(dp2988
g2934
g9
sg2936
VDOID:5209
p2989
sg2938
Vbenign struma ovarii
p2990
sa(dp2991
g2934
g9
sg2936
VDOID:5208
p2992
sg2938
Vmalignant struma ovarii
p2993
sa(dp2994
g2934
g9
sg2936
VDOID:2856
p2995
sg2938
Veuthyroid sick syndrome
p2996
sa(dp2997
g2934
g9
sg2936
VHP:0008247
p2998
sg2938
VEuthyroid hyperthyroxinemia
p2999
sa(dp3000
g2934
g9
sg2936
VHP:0009798
p3001
sg2938
VEuthyroid goiter
p3002
sa(dp3003
g2934
g9
sg2936
VHP:0000866
p3004
sg2938
VEuthyroid multinodular goiter
p3005
sa(dp3006
g2934
VAn autosomal recessive disease characterized by bilateral prelingual sensorineural hearing loss and euthyroid goiter and that has_material_basis_in homozygous or compound heterozygous mutation in the SLC26A4 gene on chromosome 7q.
p3007
sg2936
VDOID:0060744
p3008
sg2938
VPendred Syndrome
p3009
sasg2967
S'Struma (euthyroid)'
p3010
sg2969
(lp3011
sasS'filename'
p3012
S's0027lre.txt'
p3013
sa(dp3014
S'terms'
p3015
(lp3016
(dp3017
S'top_matches'
p3018
(lp3019
(dp3020
S'desc'
p3021
VA coronary artery disease characterized by myocardial cell death (myocardial necrosis) due to prolonged ischaemia.
p3022
sS'id'
p3023
VDOID:5844
p3024
sS'label'
p3025
Vmyocardial infarction
p3026
sa(dp3027
g3021
g9
sg3023
VHP:0001658
p3028
sg3025
VMyocardial infarction
p3029
sa(dp3030
g3021
g9
sg3023
VDOID:10266
p3031
sg3025
Vsubendocardial infarction acute myocardial infarction
p3032
sa(dp3033
g3021
g9
sg3023
VDOID:10649
p3034
sg3025
Vacute inferolateral myocardial infarction
p3035
sa(dp3036
g3021
g9
sg3023
VDOID:10651
p3037
sg3025
Vacute anterolateral myocardial infarction
p3038
sa(dp3039
g3021
g9
sg3023
VDOID:5849
p3040
sg3025
Vsubendocardial myocardial infarction
p3041
sa(dp3042
g3021
g9
sg3023
VDOID:5848
p3043
sg3025
Vapical myocardial infarction
p3044
sa(dp3045
g3021
g9
sg3023
VDOID:5843
p3046
sg3025
Vposteroinferior myocardial infarction
p3047
sa(dp3048
g3021
g9
sg3023
VDOID:5845
p3049
sg3025
Vanterolateral myocardial infarction
p3050
sa(dp3051
g3021
g9
sg3023
VDOID:5847
p3052
sg3025
Vposterior myocardial infarction
p3053
sasS'query'
p3054
S'Myocardial infarction'
p3055
sS'synonym_matches'
p3056
(lp3057
(lp3058
(dp3059
g3021
g9
sg3023
VDOID:3454
p3060
sg3025
Vbrain infarction
p3061
saa(lp3062
(dp3063
g3021
g9
sg3023
VDOID:2533
p3064
sg3025
Vsplenic infarction
p3065
saa(lp3066
(dp3067
g3021
g9
sg3023
VDOID:5850
p3068
sg3025
Vinferior myocardial infarction
p3069
saasa(dp3070
g3018
(lp3071
sg3054
S'Hypercholesterinemia'
p3072
sg3056
(lp3073
sasS'filename'
p3074
S's0028lre.txt'
p3075
sa(dp3076
S'terms'
p3077
(lp3078
(dp3079
S'top_matches'
p3080
(lp3081
(dp3082
S'desc'
p3083
VA coronary artery disease characterized by myocardial cell death (myocardial necrosis) due to prolonged ischaemia.
p3084
sS'id'
p3085
VDOID:5844
p3086
sS'label'
p3087
Vmyocardial infarction
p3088
sa(dp3089
g3083
g9
sg3085
VHP:0001658
p3090
sg3087
VMyocardial infarction
p3091
sa(dp3092
g3083
g9
sg3085
VDOID:10266
p3093
sg3087
Vsubendocardial infarction acute myocardial infarction
p3094
sa(dp3095
g3083
g9
sg3085
VDOID:10649
p3096
sg3087
Vacute inferolateral myocardial infarction
p3097
sa(dp3098
g3083
g9
sg3085
VDOID:10651
p3099
sg3087
Vacute anterolateral myocardial infarction
p3100
sa(dp3101
g3083
g9
sg3085
VDOID:5849
p3102
sg3087
Vsubendocardial myocardial infarction
p3103
sa(dp3104
g3083
g9
sg3085
VDOID:5848
p3105
sg3087
Vapical myocardial infarction
p3106
sa(dp3107
g3083
g9
sg3085
VDOID:5843
p3108
sg3087
Vposteroinferior myocardial infarction
p3109
sa(dp3110
g3083
g9
sg3085
VDOID:5845
p3111
sg3087
Vanterolateral myocardial infarction
p3112
sa(dp3113
g3083
g9
sg3085
VDOID:5847
p3114
sg3087
Vposterior myocardial infarction
p3115
sasS'query'
p3116
S'Myocardial infarction'
p3117
sS'synonym_matches'
p3118
(lp3119
(lp3120
(dp3121
g3083
g9
sg3085
VDOID:3454
p3122
sg3087
Vbrain infarction
p3123
saa(lp3124
(dp3125
g3083
g9
sg3085
VDOID:2533
p3126
sg3087
Vsplenic infarction
p3127
saa(lp3128
(dp3129
g3083
g9
sg3085
VDOID:5850
p3130
sg3087
Vinferior myocardial infarction
p3131
saasa(dp3132
g3080
(lp3133
(dp3134
g3083
g9
sg3085
VHP:0010980
p3135
sg3087
VHyperlipoproteinemia
p3136
sa(dp3137
g3083
g9
sg3085
VDOID:1172
p3138
sg3087
Vhyperlipoproteinemia type IV
p3139
sa(dp3140
g3083
g9
sg3085
VDOID:1171
p3141
sg3087
Vhyperlipoproteinemia type V
p3142
sa(dp3143
g3083
g9
sg3085
VDOID:3145
p3144
sg3087
Vhyperlipoproteinemia type III
p3145
sa(dp3146
g3083
g9
sg3085
VDOID:1168
p3147
sg3087
Vfamilial hyperlipidemia
p3148
sa(dp3149
g3083
VA familial hyperlipidemia characterized by very high levels of low-density lipoprotein (LDL) and early cardiovascular disease.
p3150
sg3085
VDOID:13810
p3151
sg3087
Vfamilial hypercholesterolemia
p3152
sa(dp3153
g3083
g9
sg3085
VDOID:14118
p3154
sg3087
Vfamilial lipoprotein lipase deficiency
p3155
sa(dp3156
g3083
g9
sg3085
VDOID:13809
p3157
sg3087
Vfamilial combined hyperlipidemia
p3158
sasg3116
S'Hyperlipoproteinemia'
p3159
sg3118
(lp3160
(lp3161
(dp3162
g3083
VA lipid metabolism disorder characterized by elevated triglyceride levels as a result of excess hepatic production of VLDL or heterozygous LPL deficiency.
p3163
sg3085
VDOID:0050527
p3164
sg3087
Vfamilial hypertriglyceridemia
p3165
saasasS'filename'
p3166
S's0029lre.txt'
p3167
sa(dp3168
S'terms'
p3169
(lp3170
(dp3171
S'top_matches'
p3172
(lp3173
(dp3174
S'desc'
p3175
VA heart disease involving one or more of the four valves of the heart (the aortic and mitral valves on the left and the pulmonary and tricuspid valves on the right).
p3176
sS'id'
p3177
VDOID:4079
p3178
sS'label'
p3179
Vheart valve disease
p3180
sa(dp3181
g3175
VA heart valve disease that is characterized by repeated inflammation with fibrinous repair. The cardinal anatomic changes of the valve include leaflet thickening, commissural fusion, and shortening and thickening of the tendinous cords.It is caused by an autoimmune reaction to Group A beta-hemolytic streptococci (GAS) that results in valvular damage.
p3182
sg3177
VDOID:0050827
p3183
sg3179
Vrheumatic heart disease
p3184
sa(dp3185
g3175
VA cardiovascular system disease that involves the heart.
p3186
sg3177
VDOID:114
p3187
sg3179
Vheart disease
p3188
sa(dp3189
g3175
g9
sg3177
VHP:0001726
p3190
sg3179
VIncreased prevalence of valvular disease
p3191
sa(dp3192
g3175
g9
sg3177
VHP:0006694
p3193
sg3179
VEarly progressive calcific cardiac valvular disease
p3194
sa(dp3195
g3175
g9
sg3177
VDOID:8514
p3196
sg3179
Vacute pulmonary heart disease
p3197
sa(dp3198
g3175
VA cardiovascular system disease that involves the heart's electrical conduction system.
p3199
sg3177
VDOID:10273
p3200
sg3179
Vheart conduction disease
p3201
sa(dp3202
g3175
g9
sg3177
VDOID:12326
p3203
sg3179
Vchronic pulmonary heart disease
p3204
sa(dp3205
g3175
g9
sg3177
VDOID:12325
p3206
sg3179
Vkyphoscoliotic heart disease
p3207
sasS'query'
p3208
S'Valvular heart disease'
p3209
sS'synonym_matches'
p3210
(lp3211
(lp3212
(dp3213
g3175
VAn artery disease that is characterized by plaque building up along the inner walls of the arteries of the heart resulting in a narrowing of the arteries and a reduced blood supply to the cardiac muscles.
p3214
sg3177
VDOID:3393
p3215
sg3179
Vcoronary artery disease
p3216
saa(lp3217
(dp3218
g3175
g9
sg3177
VHP:0001677
p3219
sg3179
VCoronary artery disease
p3220
saasa(dp3221
g3172
(lp3222
(dp3223
g3175
g9
sg3177
VUBERON:0003978
p3224
sg3179
Vvalve
p3225
sa(dp3226
g3175
g9
sg3177
VDOID:5644
p3227
sg3179
Vtricuspid valve prolapse
p3228
sa(dp3229
g3175
g9
sg3177
VDOID:5232
p3230
sg3179
Vaortic valve prolapse
p3231
sa(dp3232
g3175
VA mitral valve disease where one or both of the cusps of the mitral valve bulge or collapse backward in the left atrium during systole.
p3233
sg3177
VDOID:988
p3234
sg3179
Vmitral valve prolapse
p3235
sa(dp3236
g3175
g9
sg3177
VDOID:5749
p3237
sg3179
Vpulmonary valve disease
p3238
sa(dp3239
g3175
g9
sg3177
VDOID:5748
p3240
sg3179
Vrheumatic pulmonary valve disease
p3241
sa(dp3242
g3175
VA pulmonary valve disease that occurs when the pulmonary valve is not strong enough to prevent backflow into the right ventricle. If it is secondary to pulmonary hypertension it is referred to as a Graham Steell murmur.
p3243
sg3177
VDOID:14265
p3244
sg3179
Vpulmonary valve insufficiency
p3245
sa(dp3246
g3175
g9
sg3177
VDOID:61
p3247
sg3179
Vmitral valve disease
p3248
sa(dp3249
g3175
g9
sg3177
VDOID:62
p3250
sg3179
Vaortic valve disease
p3251
sa(dp3252
g3175
VAn aortic valve disease that is characterized by leaking of the aortic valve of the heart causes blood to flow in the reverse direction during ventricular diastole, from the aorta into the left ventricle.
p3253
sg3177
VDOID:57
p3254
sg3179
Vaortic valve insufficiency
p3255
sasg3208
S'Prosthetic valve'
p3256
sg3210
(lp3257
(lp3258
(dp3259
g3175
VAn aortic valve disease that has_physical_basis_in incomplete opening of the aortic valve.
p3260
sg3177
VDOID:1712
p3261
sg3179
Vaortic valve stenosis
p3262
saasa(dp3263
g3172
(lp3264
(dp3265
g3175
g9
sg3177
VDOID:5805
p3266
sg3179
Vsubvalvular aortic stenosis
p3267
sa(dp3268
g3175
g9
sg3177
VDOID:1929
p3269
sg3179
Vsupravalvular aortic stenosis
p3270
sa(dp3271
g3175
VAn aortic valve disease that has_physical_basis_in incomplete opening of the aortic valve.
p3272
sg3177
VDOID:1712
p3273
sg3179
Vaortic valve stenosis
p3274
sa(dp3275
g3175
g9
sg3177
VHP:0001691
p3276
sg3179
VMuscular subvalvular aortic stenosis
p3277
sa(dp3278
g3175
g9
sg3177
VHP:0001650
p3279
sg3179
VAortic valve stenosis
p3280
sa(dp3281
g3175
g9
sg3177
VHP:0005174
p3282
sg3179
VMembranous subvalvular aortic stenosis
p3283
sa(dp3284
g3175
g9
sg3177
VHP:0005173
p3285
sg3179
VCalcific aortic valve stenosis
p3286
sa(dp3287
g3175
g9
sg3177
VHP:0004381
p3288
sg3179
VSupravalvular aortic stenosis
p3289
sa(dp3290
g3175
g9
sg3177
VDOID:12639
p3291
sg3179
Vpyloric stenosis
p3292
sa(dp3293
g3175
g9
sg3177
VDOID:3227
p3294
sg3179
Vtracheal stenosis
p3295
sasg3208
S'Aortic stenosis (moderate'
p3296
sg3210
(lp3297
sa(dp3298
g3172
(lp3299
(dp3300
g3175
g9
sg3177
VUBERON:0003978
p3301
sg3179
Vvalve
p3302
sa(dp3303
g3175
g9
sg3177
VDOID:5644
p3304
sg3179
Vtricuspid valve prolapse
p3305
sa(dp3306
g3175
g9
sg3177
VDOID:5232
p3307
sg3179
Vaortic valve prolapse
p3308
sa(dp3309
g3175
VA mitral valve disease where one or both of the cusps of the mitral valve bulge or collapse backward in the left atrium during systole.
p3310
sg3177
VDOID:988
p3311
sg3179
Vmitral valve prolapse
p3312
sa(dp3313
g3175
g9
sg3177
VDOID:5749
p3314
sg3179
Vpulmonary valve disease
p3315
sa(dp3316
g3175
g9
sg3177
VDOID:5748
p3317
sg3179
Vrheumatic pulmonary valve disease
p3318
sa(dp3319
g3175
VA pulmonary valve disease that occurs when the pulmonary valve is not strong enough to prevent backflow into the right ventricle. If it is secondary to pulmonary hypertension it is referred to as a Graham Steell murmur.
p3320
sg3177
VDOID:14265
p3321
sg3179
Vpulmonary valve insufficiency
p3322
sa(dp3323
g3175
g9
sg3177
VDOID:61
p3324
sg3179
Vmitral valve disease
p3325
sa(dp3326
g3175
g9
sg3177
VDOID:62
p3327
sg3179
Vaortic valve disease
p3328
sa(dp3329
g3175
VAn aortic valve disease that is characterized by leaking of the aortic valve of the heart causes blood to flow in the reverse direction during ventricular diastole, from the aorta into the left ventricle.
p3330
sg3177
VDOID:57
p3331
sg3179
Vaortic valve insufficiency
p3332
sasg3208
S'prostetic valve)'
p3333
sg3210
(lp3334
(lp3335
(dp3336
g3175
VAn aortic valve disease that has_physical_basis_in incomplete opening of the aortic valve.
p3337
sg3177
VDOID:1712
p3338
sg3179
Vaortic valve stenosis
p3339
saasa(dp3340
g3172
(lp3341
(dp3342
g3175
g9
sg3177
VHP:0001659
p3343
sg3179
VAortic regurgitation
p3344
sa(dp3345
g3175
VAn aortic valve disease that is characterized by leaking of the aortic valve of the heart causes blood to flow in the reverse direction during ventricular diastole, from the aorta into the left ventricle.
p3346
sg3177
VDOID:57
p3347
sg3179
Vaortic valve insufficiency
p3348
sa(dp3349
g3175
g9
sg3177
VHP:0011469
p3350
sg3179
VNasal regurgitation
p3351
sa(dp3352
g3175
g9
sg3177
VHP:0001653
p3353
sg3179
VMitral regurgitation
p3354
sa(dp3355
g3175
g9
sg3177
VHP:0005180
p3356
sg3179
VTricuspid regurgitation
p3357
sa(dp3358
g3175
g9
sg3177
VDOID:10230
p3359
sg3179
Vaortic atherosclerosis
p3360
sa(dp3361
g3175
VAn aortic disease that is characterized by an enlargement (dilation) of the aorta to greater than 1.5 times normal size.
p3362
sg3177
VDOID:3627
p3363
sg3179
Vaortic aneurysm
p3364
sa(dp3365
g3175
VAn artery disease that is characterized by degeneration of the cells composing the aortic wall.
p3366
sg3177
VDOID:520
p3367
sg3179
Vaortic disease
p3368
sa(dp3369
g3175
g9
sg3177
VDOID:5232
p3370
sg3179
Vaortic valve prolapse
p3371
sa(dp3372
g3175
VAn aortic aneurysm that is located_in the abdominal aorta.
p3373
sg3177
VDOID:7693
p3374
sg3179
Vabdominal aortic aneurysm
p3375
sasg3208
S'Aortic regurgitation (grade 2-3)'
p3376
sg3210
(lp3377
(lp3378
(dp3379
g3175
g9
sg3177
VDOID:11502
p3380
sg3179
Vmitral valve insufficiency
p3381
saasasS'filename'
p3382
S's0030_re.txt'
p3383
sa(dp3384
S'terms'
p3385
(lp3386
(dp3387
S'top_matches'
p3388
(lp3389
(dp3390
S'desc'
p3391
VA coronary artery disease characterized by myocardial cell death (myocardial necrosis) due to prolonged ischaemia.
p3392
sS'id'
p3393
VDOID:5844
p3394
sS'label'
p3395
Vmyocardial infarction
p3396
sa(dp3397
g3391
g9
sg3393
VHP:0001658
p3398
sg3395
VMyocardial infarction
p3399
sa(dp3400
g3391
g9
sg3393
VDOID:10266
p3401
sg3395
Vsubendocardial infarction acute myocardial infarction
p3402
sa(dp3403
g3391
g9
sg3393
VDOID:10649
p3404
sg3395
Vacute inferolateral myocardial infarction
p3405
sa(dp3406
g3391
g9
sg3393
VDOID:10651
p3407
sg3395
Vacute anterolateral myocardial infarction
p3408
sa(dp3409
g3391
g9
sg3393
VDOID:5849
p3410
sg3395
Vsubendocardial myocardial infarction
p3411
sa(dp3412
g3391
g9
sg3393
VDOID:5848
p3413
sg3395
Vapical myocardial infarction
p3414
sa(dp3415
g3391
g9
sg3393
VDOID:5843
p3416
sg3395
Vposteroinferior myocardial infarction
p3417
sa(dp3418
g3391
g9
sg3393
VDOID:5845
p3419
sg3395
Vanterolateral myocardial infarction
p3420
sa(dp3421
g3391
g9
sg3393
VDOID:5847
p3422
sg3395
Vposterior myocardial infarction
p3423
sasS'query'
p3424
S'Myocardial infarction'
p3425
sS'synonym_matches'
p3426
(lp3427
(lp3428
(dp3429
g3391
g9
sg3393
VDOID:3454
p3430
sg3395
Vbrain infarction
p3431
saa(lp3432
(dp3433
g3391
g9
sg3393
VDOID:2533
p3434
sg3395
Vsplenic infarction
p3435
saa(lp3436
(dp3437
g3391
g9
sg3393
VDOID:5850
p3438
sg3395
Vinferior myocardial infarction
p3439
saasa(dp3440
g3388
(lp3441
sg3424
S'Skoliosis'
p3442
sg3426
(lp3443
sasS'filename'
p3444
S's0031lre.txt'
p3445
sa(dp3446
S'terms'
p3447
(lp3448
(dp3449
S'top_matches'
p3450
(lp3451
(dp3452
S'desc'
p3453
VA syndrome characterized by a unique combination of cardiac arrhythmias and intestinal pseudo-obstruction. It has material basis in the mutated SGOL1 protein. Distinctive clinical features include atrial dysrhythmias, sick sinus syndrome (SSS) and valve anomalies and chronic intestinal pseudo-obstruction (CIPO).
p3454
sS'id'
p3455
VDOID:0060339
p3456
sS'label'
p3457
Vchronic atrial and intestinal dysrhythmia
p3458
sasS'query'
p3459
S'Dysrhythmia'
p3460
sS'synonym_matches'
p3461
(lp3462
sa(dp3463
g3450
(lp3464
(dp3465
g3453
VA heart conduction disease that is characterized by uncoordinated electrical activity in the heart's upper chambers (the atria), which causes the heartbeat to become fast and irregular and has symptoms palpitations, weakness, fatigue, lightheadedness, dizziness, confusion, shortness of breath and chest pain.
p3466
sg3455
VDOID:0060224
p3467
sg3457
Vatrial fibrillation
p3468
sa(dp3469
g3453
g9
sg3455
VHP:0005110
p3470
sg3457
VAtrial fibrillation
p3471
sa(dp3472
g3453
VAn atrial fibrillation that has_material_basis_in autosomal dominant inheritance of the familial atrial fibrillation (ATFB) genes.
p3473
sg3455
VDOID:0050650
p3474
sg3457
Vfamilial atrial fibrillation
p3475
sa(dp3476
g3453
g9
sg3455
VHP:0004757
p3477
sg3457
VParoxysmal atrial fibrillation
p3478
sa(dp3479
g3453
g9
sg3455
VHP:0004754
p3480
sg3457
VPermanent atrial fibrillation
p3481
sa(dp3482
g3453
g9
sg3455
VHP:0001663
p3483
sg3457
VVentricular fibrillation
p3484
sa(dp3485
g3453
g9
sg3455
VHP:0010546
p3486
sg3457
VMuscle fibrillation
p3487
sa(dp3488
g3453
VA visceral heterotaxy characterized by complete atrioventricular septal defect with a common atrium and univentricular AV connection, total anomalous pulmonary drainage, and transposition or malposition of the great arteries and may be associated with bilateral trilobed lungs, midline liver, asplenia and situs inversus affecting other organs that has_material_basis_in homozygous mutation in the GDF1 gene on chromosome 19p12.
p3489
sg3455
VDOID:0060856
p3490
sg3457
Vright atrial isomerism
p3491
sa(dp3492
g3453
VA heart septal defect located_in in the septum that separates the two atria of the heart.
p3493
sg3455
VDOID:1882
p3494
sg3457
Vatrial heart septal defect
p3495
sa(dp3496
g3453
VAn atrial heart septal defect type 1 associated with variation in the region 5p.
p3497
sg3455
VDOID:0110106
p3498
sg3457
Vatrial heart septal defect 1
p3499
sasg3459
S'Atrial fibrillation'
p3500
sg3461
(lp3501
sa(dp3502
g3450
(lp3503
(dp3504
g3453
g9
sg3455
VDOID:9970
p3505
sg3457
Vobesity
p3506
sa(dp3507
g3453
g9
sg3455
VHP:0001513
p3508
sg3457
VObesity
p3509
sa(dp3510
g3453
g9
sg3455
VDOID:11981
p3511
sg3457
Vmorbid obesity
p3512
sa(dp3513
g3453
g9
sg3455
VHP:0001956
p3514
sg3457
VTruncal obesity
p3515
sa(dp3516
g3453
g9
sg3455
VHP:0012743
p3517
sg3457
VAbdominal obesity
p3518
sa(dp3519
g3453
g9
sg3455
VDOID:0060611
p3520
sg3457
Vabdominal obesity-metabolic syndrome
p3521
sa(dp3522
g3453
VAn abdominal obesity-metabolic syndrome that has_material_basis_in heterozygous mutation in the DYRK1B gene on chromosome 19q13.
p3523
sg3455
VDOID:0060612
p3524
sg3457
Vabdominal obesity-metabolic syndrome 3
p3525
sa(dp3526
g3453
g9
sg3455
VHP:0008915
p3527
sg3457
VChildhood-onset truncal obesity
p3528
sa(dp3529
g3453
g9
sg3455
VDOID:14221
p3530
sg3457
Vmetabolic syndrome X
p3531
sa(dp3532
g3453
VA syndromic X-linked intellectual disability characterized by intellectual disability, truncal obesity, gynecomastia, hypogonadism, dysmorphic facial features, and short stature  that has_material_basis_in hemizygous mutation in the LAS1L gene (300964) on chromosome Xq12.
p3533
sg3455
VDOID:0060814
p3534
sg3457
VWilson-Turner syndrome
p3535
sasg3459
S'Obesity'
p3536
sg3461
(lp3537
sasS'filename'
p3538
S's0032_re.txt'
p3539
sa(dp3540
S'terms'
p3541
(lp3542
(dp3543
S'top_matches'
p3544
(lp3545
(dp3546
S'desc'
p3547
VA syndrome characterized by a unique combination of cardiac arrhythmias and intestinal pseudo-obstruction. It has material basis in the mutated SGOL1 protein. Distinctive clinical features include atrial dysrhythmias, sick sinus syndrome (SSS) and valve anomalies and chronic intestinal pseudo-obstruction (CIPO).
p3548
sS'id'
p3549
VDOID:0060339
p3550
sS'label'
p3551
Vchronic atrial and intestinal dysrhythmia
p3552
sasS'query'
p3553
S'Dysrhythmia'
p3554
sS'synonym_matches'
p3555
(lp3556
sa(dp3557
g3544
(lp3558
(dp3559
g3547
VA heart conduction disease that is characterized by uncoordinated electrical activity in the heart's upper chambers (the atria), which causes the heartbeat to become fast and irregular and has symptoms palpitations, weakness, fatigue, lightheadedness, dizziness, confusion, shortness of breath and chest pain.
p3560
sg3549
VDOID:0060224
p3561
sg3551
Vatrial fibrillation
p3562
sa(dp3563
g3547
g9
sg3549
VHP:0005110
p3564
sg3551
VAtrial fibrillation
p3565
sa(dp3566
g3547
VAn atrial fibrillation that has_material_basis_in autosomal dominant inheritance of the familial atrial fibrillation (ATFB) genes.
p3567
sg3549
VDOID:0050650
p3568
sg3551
Vfamilial atrial fibrillation
p3569
sa(dp3570
g3547
g9
sg3549
VHP:0004757
p3571
sg3551
VParoxysmal atrial fibrillation
p3572
sa(dp3573
g3547
g9
sg3549
VHP:0004754
p3574
sg3551
VPermanent atrial fibrillation
p3575
sa(dp3576
g3547
g9
sg3549
VHP:0001663
p3577
sg3551
VVentricular fibrillation
p3578
sa(dp3579
g3547
g9
sg3549
VHP:0010546
p3580
sg3551
VMuscle fibrillation
p3581
sa(dp3582
g3547
VA visceral heterotaxy characterized by complete atrioventricular septal defect with a common atrium and univentricular AV connection, total anomalous pulmonary drainage, and transposition or malposition of the great arteries and may be associated with bilateral trilobed lungs, midline liver, asplenia and situs inversus affecting other organs that has_material_basis_in homozygous mutation in the GDF1 gene on chromosome 19p12.
p3583
sg3549
VDOID:0060856
p3584
sg3551
Vright atrial isomerism
p3585
sa(dp3586
g3547
VA heart septal defect located_in in the septum that separates the two atria of the heart.
p3587
sg3549
VDOID:1882
p3588
sg3551
Vatrial heart septal defect
p3589
sa(dp3590
g3547
VAn atrial heart septal defect type 1 associated with variation in the region 5p.
p3591
sg3549
VDOID:0110106
p3592
sg3551
Vatrial heart septal defect 1
p3593
sasg3553
S'Atrial fibrillation'
p3594
sg3555
(lp3595
sa(dp3596
g3544
(lp3597
(dp3598
g3547
g9
sg3549
VDOID:9970
p3599
sg3551
Vobesity
p3600
sa(dp3601
g3547
g9
sg3549
VHP:0001513
p3602
sg3551
VObesity
p3603
sa(dp3604
g3547
g9
sg3549
VDOID:11981
p3605
sg3551
Vmorbid obesity
p3606
sa(dp3607
g3547
g9
sg3549
VHP:0001956
p3608
sg3551
VTruncal obesity
p3609
sa(dp3610
g3547
g9
sg3549
VHP:0012743
p3611
sg3551
VAbdominal obesity
p3612
sa(dp3613
g3547
g9
sg3549
VDOID:0060611
p3614
sg3551
Vabdominal obesity-metabolic syndrome
p3615
sa(dp3616
g3547
VAn abdominal obesity-metabolic syndrome that has_material_basis_in heterozygous mutation in the DYRK1B gene on chromosome 19q13.
p3617
sg3549
VDOID:0060612
p3618
sg3551
Vabdominal obesity-metabolic syndrome 3
p3619
sa(dp3620
g3547
g9
sg3549
VHP:0008915
p3621
sg3551
VChildhood-onset truncal obesity
p3622
sa(dp3623
g3547
g9
sg3549
VDOID:14221
p3624
sg3551
Vmetabolic syndrome X
p3625
sa(dp3626
g3547
VA syndromic X-linked intellectual disability characterized by intellectual disability, truncal obesity, gynecomastia, hypogonadism, dysmorphic facial features, and short stature  that has_material_basis_in hemizygous mutation in the LAS1L gene (300964) on chromosome Xq12.
p3627
sg3549
VDOID:0060814
p3628
sg3551
VWilson-Turner syndrome
p3629
sasg3553
S'Obesity'
p3630
sg3555
(lp3631
sasS'filename'
p3632
S's0033_re.txt'
p3633
sa.